
osmium-sam4s.elf:     file format elf32-littlearm


Disassembly of section .text:

00100000 <reset>:
  100000:	ea000006 	b	100020 <begin>

00100004 <undefined>:
  100004:	eafffffe 	b	100004 <undefined>

00100008 <swi>:
  100008:	eafffffe 	b	100008 <swi>

0010000c <pabt>:
  10000c:	eafffffe 	b	10000c <pabt>

00100010 <dabt>:
  100010:	eafffffe 	b	100010 <dabt>

00100014 <reserved>:
  100014:	eafffffe 	b	100014 <reserved>

00100018 <irq>:
  100018:	ea00001d 	b	100094 <irq_handler>

0010001c <fiq>:
  10001c:	eafffffe 	b	10001c <fiq>

00100020 <begin>:
  100020:	e59fd0bc 	ldr	sp, [pc, #188]	; 1000e4 <irq_handler+0x50>
  100024:	e59f00bc 	ldr	r0, [pc, #188]	; 1000e8 <irq_handler+0x54>
  100028:	e1a0e00f 	mov	lr, pc
  10002c:	e12fff10 	bx	r0
  100030:	e1a0000d 	mov	r0, sp
  100034:	e321f0d1 	msr	CPSR_c, #209	; 0xd1
  100038:	e59f80ac 	ldr	r8, [pc, #172]	; 1000ec <irq_handler+0x58>
  10003c:	e321f0d2 	msr	CPSR_c, #210	; 0xd2
  100040:	e1a0d000 	mov	sp, r0
  100044:	e2400060 	sub	r0, r0, #96	; 0x60
  100048:	e321f013 	msr	CPSR_c, #19
  10004c:	e1a0d000 	mov	sp, r0
  100050:	e59f1098 	ldr	r1, [pc, #152]	; 1000f0 <irq_handler+0x5c>
  100054:	e59f2098 	ldr	r2, [pc, #152]	; 1000f4 <irq_handler+0x60>
  100058:	e59f3098 	ldr	r3, [pc, #152]	; 1000f8 <irq_handler+0x64>

0010005c <looprel>:
  10005c:	e1520003 	cmp	r2, r3
  100060:	34910004 	ldrcc	r0, [r1], #4
  100064:	34820004 	strcc	r0, [r2], #4
  100068:	3afffffb 	bcc	10005c <looprel>
  10006c:	e3a00000 	mov	r0, #0
  100070:	e59f1084 	ldr	r1, [pc, #132]	; 1000fc <irq_handler+0x68>
  100074:	e59f2084 	ldr	r2, [pc, #132]	; 100100 <irq_handler+0x6c>

00100078 <loopzi>:
  100078:	e1510002 	cmp	r1, r2
  10007c:	34810004 	strcc	r0, [r1], #4
  100080:	3afffffc 	bcc	100078 <loopzi>
  100084:	e59fe078 	ldr	lr, [pc, #120]	; 100104 <irq_handler+0x70>
  100088:	e59f0078 	ldr	r0, [pc, #120]	; 100108 <irq_handler+0x74>
  10008c:	e12fff10 	bx	r0

00100090 <stop>:
  100090:	eafffffe 	b	100090 <stop>

00100094 <irq_handler>:
  100094:	e24ee004 	sub	lr, lr, #4
  100098:	e92d4000 	stmfd	sp!, {lr}
  10009c:	e14fe000 	mrs	lr, SPSR
  1000a0:	e92d4000 	stmfd	sp!, {lr}
  1000a4:	e92d0001 	stmfd	sp!, {r0}
  1000a8:	e59fe03c 	ldr	lr, [pc, #60]	; 1000ec <irq_handler+0x58>
  1000ac:	e59e0100 	ldr	r0, [lr, #256]	; 0x100
  1000b0:	e58ee100 	str	lr, [lr, #256]	; 0x100
  1000b4:	e321f013 	msr	CPSR_c, #19
  1000b8:	e92d500e 	push	{r1, r2, r3, ip, lr}
  1000bc:	e1a0e00f 	mov	lr, pc
  1000c0:	e12fff10 	bx	r0
  1000c4:	e8bd500e 	pop	{r1, r2, r3, ip, lr}
  1000c8:	e321f092 	msr	CPSR_c, #146	; 0x92
  1000cc:	e59fe018 	ldr	lr, [pc, #24]	; 1000ec <irq_handler+0x58>
  1000d0:	e58ee130 	str	lr, [lr, #304]	; 0x130
  1000d4:	e8bd0001 	ldmfd	sp!, {r0}
  1000d8:	e8bd4000 	ldmfd	sp!, {lr}
  1000dc:	e16ff00e 	msr	SPSR_fsxc, lr
  1000e0:	e8fd8000 	ldm	sp!, {pc}^
  1000e4:	00204000 	eoreq	r4, r0, r0
  1000e8:	00101ab1 			; <UNDEFINED> instruction: 0x00101ab1
  1000ec:	fffff000 			; <UNDEFINED> instruction: 0xfffff000
  1000f0:	001093ac 	andseq	r9, r0, ip, lsr #7
  1000f4:	00200000 	eoreq	r0, r0, r0
  1000f8:	00200958 	eoreq	r0, r0, r8, asr r9
  1000fc:	00200958 	eoreq	r0, r0, r8, asr r9
  100100:	00200af0 	strdeq	r0, [r0], -r0	; <UNPREDICTABLE>
  100104:	00100090 	mulseq	r0, r0, r0
  100108:	00101ba5 	andseq	r1, r0, r5, lsr #23

0010010c <at45_configure>:
  10010c:	4b06      	ldr	r3, [pc, #24]	; (100128 <at45_configure+0x1c>)
  10010e:	2280      	movs	r2, #128	; 0x80
  100110:	6819      	ldr	r1, [r3, #0]
  100112:	0612      	lsls	r2, r2, #24
  100114:	4311      	orrs	r1, r2
  100116:	6019      	str	r1, [r3, #0]
  100118:	6919      	ldr	r1, [r3, #16]
  10011a:	0049      	lsls	r1, r1, #1
  10011c:	0849      	lsrs	r1, r1, #1
  10011e:	6119      	str	r1, [r3, #16]
  100120:	6959      	ldr	r1, [r3, #20]
  100122:	430a      	orrs	r2, r1
  100124:	615a      	str	r2, [r3, #20]
  100126:	4770      	bx	lr
  100128:	fffff400 			; <UNDEFINED> instruction: 0xfffff400

0010012c <at45_enable>:
  10012c:	2380      	movs	r3, #128	; 0x80
  10012e:	490b      	ldr	r1, [pc, #44]	; (10015c <at45_enable+0x30>)
  100130:	025b      	lsls	r3, r3, #9
  100132:	690a      	ldr	r2, [r1, #16]
  100134:	421a      	tst	r2, r3
  100136:	d0fc      	beq.n	100132 <at45_enable+0x6>
  100138:	4b09      	ldr	r3, [pc, #36]	; (100160 <at45_enable+0x34>)
  10013a:	695a      	ldr	r2, [r3, #20]
  10013c:	0052      	lsls	r2, r2, #1
  10013e:	0852      	lsrs	r2, r2, #1
  100140:	615a      	str	r2, [r3, #20]
  100142:	2280      	movs	r2, #128	; 0x80
  100144:	6919      	ldr	r1, [r3, #16]
  100146:	0612      	lsls	r2, r2, #24
  100148:	4311      	orrs	r1, r2
  10014a:	6119      	str	r1, [r3, #16]
  10014c:	6b19      	ldr	r1, [r3, #48]	; 0x30
  10014e:	0049      	lsls	r1, r1, #1
  100150:	0849      	lsrs	r1, r1, #1
  100152:	6319      	str	r1, [r3, #48]	; 0x30
  100154:	6b59      	ldr	r1, [r3, #52]	; 0x34
  100156:	430a      	orrs	r2, r1
  100158:	635a      	str	r2, [r3, #52]	; 0x34
  10015a:	4770      	bx	lr
  10015c:	fffe0000 			; <UNDEFINED> instruction: 0xfffe0000
  100160:	fffff400 			; <UNDEFINED> instruction: 0xfffff400

00100164 <at45_disable>:
  100164:	4b08      	ldr	r3, [pc, #32]	; (100188 <at45_disable+0x24>)
  100166:	6b5a      	ldr	r2, [r3, #52]	; 0x34
  100168:	0052      	lsls	r2, r2, #1
  10016a:	0852      	lsrs	r2, r2, #1
  10016c:	635a      	str	r2, [r3, #52]	; 0x34
  10016e:	2280      	movs	r2, #128	; 0x80
  100170:	6b19      	ldr	r1, [r3, #48]	; 0x30
  100172:	0612      	lsls	r2, r2, #24
  100174:	4311      	orrs	r1, r2
  100176:	6319      	str	r1, [r3, #48]	; 0x30
  100178:	6919      	ldr	r1, [r3, #16]
  10017a:	0049      	lsls	r1, r1, #1
  10017c:	0849      	lsrs	r1, r1, #1
  10017e:	6119      	str	r1, [r3, #16]
  100180:	6959      	ldr	r1, [r3, #20]
  100182:	430a      	orrs	r2, r1
  100184:	615a      	str	r2, [r3, #20]
  100186:	4770      	bx	lr
  100188:	fffff400 			; <UNDEFINED> instruction: 0xfffff400

0010018c <at45_reset>:
  10018c:	2380      	movs	r3, #128	; 0x80
  10018e:	490f      	ldr	r1, [pc, #60]	; (1001cc <at45_reset+0x40>)
  100190:	025b      	lsls	r3, r3, #9
  100192:	690a      	ldr	r2, [r1, #16]
  100194:	421a      	tst	r2, r3
  100196:	d0fc      	beq.n	100192 <at45_reset+0x6>
  100198:	4b0d      	ldr	r3, [pc, #52]	; (1001d0 <at45_reset+0x44>)
  10019a:	695a      	ldr	r2, [r3, #20]
  10019c:	0052      	lsls	r2, r2, #1
  10019e:	0852      	lsrs	r2, r2, #1
  1001a0:	615a      	str	r2, [r3, #20]
  1001a2:	2280      	movs	r2, #128	; 0x80
  1001a4:	6919      	ldr	r1, [r3, #16]
  1001a6:	0612      	lsls	r2, r2, #24
  1001a8:	4311      	orrs	r1, r2
  1001aa:	6119      	str	r1, [r3, #16]
  1001ac:	6b59      	ldr	r1, [r3, #52]	; 0x34
  1001ae:	0049      	lsls	r1, r1, #1
  1001b0:	0849      	lsrs	r1, r1, #1
  1001b2:	6359      	str	r1, [r3, #52]	; 0x34
  1001b4:	6b19      	ldr	r1, [r3, #48]	; 0x30
  1001b6:	4311      	orrs	r1, r2
  1001b8:	6319      	str	r1, [r3, #48]	; 0x30
  1001ba:	6b19      	ldr	r1, [r3, #48]	; 0x30
  1001bc:	0049      	lsls	r1, r1, #1
  1001be:	0849      	lsrs	r1, r1, #1
  1001c0:	6319      	str	r1, [r3, #48]	; 0x30
  1001c2:	6b59      	ldr	r1, [r3, #52]	; 0x34
  1001c4:	430a      	orrs	r2, r1
  1001c6:	635a      	str	r2, [r3, #52]	; 0x34
  1001c8:	4770      	bx	lr
  1001ca:	46c0      	nop			; (mov r8, r8)
  1001cc:	fffe0000 			; <UNDEFINED> instruction: 0xfffe0000
  1001d0:	fffff400 			; <UNDEFINED> instruction: 0xfffff400

001001d4 <at45_format>:
  1001d4:	4770      	bx	lr
  1001d6:	ffff b5f0 	vsli.64	<illegal reg q13.5>, q8, #63	; 0x3f

001001d8 <at45_alloc>:
  1001d8:	b5f0      	push	{r4, r5, r6, r7, lr}
  1001da:	1c04      	adds	r4, r0, #0
  1001dc:	b086      	sub	sp, #24
  1001de:	2803      	cmp	r0, #3
  1001e0:	d800      	bhi.n	1001e4 <at45_alloc+0xc>
  1001e2:	2404      	movs	r4, #4
  1001e4:	4b4b      	ldr	r3, [pc, #300]	; (100314 <at45_alloc+0x13c>)
  1001e6:	681f      	ldr	r7, [r3, #0]
  1001e8:	2108      	movs	r1, #8
  1001ea:	1c38      	adds	r0, r7, #0
  1001ec:	f000 fab8 	bl	100760 <at45_dereference>
  1001f0:	2500      	movs	r5, #0
  1001f2:	1c06      	adds	r6, r0, #0
  1001f4:	1c2a      	adds	r2, r5, #0
  1001f6:	1c2b      	adds	r3, r5, #0
  1001f8:	e02c      	b.n	100254 <at45_alloc+0x7c>
  1001fa:	6831      	ldr	r1, [r6, #0]
  1001fc:	9100      	str	r1, [sp, #0]
  1001fe:	42a1      	cmp	r1, r4
  100200:	d314      	bcc.n	10022c <at45_alloc+0x54>
  100202:	d10e      	bne.n	100222 <at45_alloc+0x4a>
  100204:	6871      	ldr	r1, [r6, #4]
  100206:	2b00      	cmp	r3, #0
  100208:	d003      	beq.n	100212 <at45_alloc+0x3a>
  10020a:	6059      	str	r1, [r3, #4]
  10020c:	1c18      	adds	r0, r3, #0
  10020e:	2108      	movs	r1, #8
  100210:	e003      	b.n	10021a <at45_alloc+0x42>
  100212:	4840      	ldr	r0, [pc, #256]	; (100314 <at45_alloc+0x13c>)
  100214:	2220      	movs	r2, #32
  100216:	6001      	str	r1, [r0, #0]
  100218:	2104      	movs	r1, #4
  10021a:	f000 fa34 	bl	100686 <at45_push>
  10021e:	1d3d      	adds	r5, r7, #4
  100220:	e072      	b.n	100308 <at45_alloc+0x130>
  100222:	2d00      	cmp	r5, #0
  100224:	d004      	beq.n	100230 <at45_alloc+0x58>
  100226:	9900      	ldr	r1, [sp, #0]
  100228:	42a9      	cmp	r1, r5
  10022a:	d301      	bcc.n	100230 <at45_alloc+0x58>
  10022c:	9500      	str	r5, [sp, #0]
  10022e:	e003      	b.n	100238 <at45_alloc+0x60>
  100230:	9204      	str	r2, [sp, #16]
  100232:	9703      	str	r7, [sp, #12]
  100234:	9301      	str	r3, [sp, #4]
  100236:	9602      	str	r6, [sp, #8]
  100238:	6872      	ldr	r2, [r6, #4]
  10023a:	1c30      	adds	r0, r6, #0
  10023c:	9205      	str	r2, [sp, #20]
  10023e:	f001 fdfd 	bl	101e3c <free>
  100242:	6870      	ldr	r0, [r6, #4]
  100244:	2108      	movs	r1, #8
  100246:	f000 fa8b 	bl	100760 <at45_dereference>
  10024a:	1c3a      	adds	r2, r7, #0
  10024c:	9d00      	ldr	r5, [sp, #0]
  10024e:	9f05      	ldr	r7, [sp, #20]
  100250:	1c33      	adds	r3, r6, #0
  100252:	1c06      	adds	r6, r0, #0
  100254:	2f00      	cmp	r7, #0
  100256:	d1d0      	bne.n	1001fa <at45_alloc+0x22>
  100258:	1c30      	adds	r0, r6, #0
  10025a:	f001 fdef 	bl	101e3c <free>
  10025e:	2d00      	cmp	r5, #0
  100260:	d033      	beq.n	1002ca <at45_alloc+0xf2>
  100262:	1b2d      	subs	r5, r5, r4
  100264:	2d07      	cmp	r5, #7
  100266:	d817      	bhi.n	100298 <at45_alloc+0xc0>
  100268:	9902      	ldr	r1, [sp, #8]
  10026a:	9a01      	ldr	r2, [sp, #4]
  10026c:	684b      	ldr	r3, [r1, #4]
  10026e:	2a00      	cmp	r2, #0
  100270:	d009      	beq.n	100286 <at45_alloc+0xae>
  100272:	6053      	str	r3, [r2, #4]
  100274:	1c10      	adds	r0, r2, #0
  100276:	2108      	movs	r1, #8
  100278:	9a04      	ldr	r2, [sp, #16]
  10027a:	f000 fa04 	bl	100686 <at45_push>
  10027e:	9801      	ldr	r0, [sp, #4]
  100280:	f001 fddc 	bl	101e3c <free>
  100284:	e005      	b.n	100292 <at45_alloc+0xba>
  100286:	4823      	ldr	r0, [pc, #140]	; (100314 <at45_alloc+0x13c>)
  100288:	2104      	movs	r1, #4
  10028a:	2220      	movs	r2, #32
  10028c:	6003      	str	r3, [r0, #0]
  10028e:	f000 f9fa 	bl	100686 <at45_push>
  100292:	9d03      	ldr	r5, [sp, #12]
  100294:	3504      	adds	r5, #4
  100296:	e037      	b.n	100308 <at45_alloc+0x130>
  100298:	9b03      	ldr	r3, [sp, #12]
  10029a:	18ee      	adds	r6, r5, r3
  10029c:	2108      	movs	r1, #8
  10029e:	1c30      	adds	r0, r6, #0
  1002a0:	f000 fa5e 	bl	100760 <at45_dereference>
  1002a4:	2108      	movs	r1, #8
  1002a6:	6004      	str	r4, [r0, #0]
  1002a8:	1c32      	adds	r2, r6, #0
  1002aa:	1c07      	adds	r7, r0, #0
  1002ac:	f000 f9eb 	bl	100686 <at45_push>
  1002b0:	9902      	ldr	r1, [sp, #8]
  1002b2:	3d04      	subs	r5, #4
  1002b4:	600d      	str	r5, [r1, #0]
  1002b6:	1c08      	adds	r0, r1, #0
  1002b8:	9a03      	ldr	r2, [sp, #12]
  1002ba:	2108      	movs	r1, #8
  1002bc:	f000 f9e3 	bl	100686 <at45_push>
  1002c0:	1c38      	adds	r0, r7, #0
  1002c2:	f001 fdbb 	bl	101e3c <free>
  1002c6:	1d35      	adds	r5, r6, #4
  1002c8:	e01e      	b.n	100308 <at45_alloc+0x130>
  1002ca:	4e13      	ldr	r6, [pc, #76]	; (100318 <at45_alloc+0x140>)
  1002cc:	2384      	movs	r3, #132	; 0x84
  1002ce:	6830      	ldr	r0, [r6, #0]
  1002d0:	039b      	lsls	r3, r3, #14
  1002d2:	1a1b      	subs	r3, r3, r0
  1002d4:	42a3      	cmp	r3, r4
  1002d6:	d317      	bcc.n	100308 <at45_alloc+0x130>
  1002d8:	1d22      	adds	r2, r4, #4
  1002da:	4293      	cmp	r3, r2
  1002dc:	d314      	bcc.n	100308 <at45_alloc+0x130>
  1002de:	2108      	movs	r1, #8
  1002e0:	f000 fa3e 	bl	100760 <at45_dereference>
  1002e4:	2108      	movs	r1, #8
  1002e6:	6004      	str	r4, [r0, #0]
  1002e8:	6832      	ldr	r2, [r6, #0]
  1002ea:	1c07      	adds	r7, r0, #0
  1002ec:	f000 f9cb 	bl	100686 <at45_push>
  1002f0:	6835      	ldr	r5, [r6, #0]
  1002f2:	3504      	adds	r5, #4
  1002f4:	1c30      	adds	r0, r6, #0
  1002f6:	1964      	adds	r4, r4, r5
  1002f8:	2104      	movs	r1, #4
  1002fa:	2224      	movs	r2, #36	; 0x24
  1002fc:	6034      	str	r4, [r6, #0]
  1002fe:	f000 f9c2 	bl	100686 <at45_push>
  100302:	1c38      	adds	r0, r7, #0
  100304:	f001 fd9a 	bl	101e3c <free>
  100308:	1c28      	adds	r0, r5, #0
  10030a:	b006      	add	sp, #24
  10030c:	bcf0      	pop	{r4, r5, r6, r7}
  10030e:	bc02      	pop	{r1}
  100310:	4708      	bx	r1
  100312:	46c0      	nop			; (mov r8, r8)
  100314:	00200a8c 	eoreq	r0, r0, ip, lsl #21
  100318:	00200a90 	mlaeq	r0, r0, sl, r0

0010031c <at45_free>:
  10031c:	b5f7      	push	{r0, r1, r2, r4, r5, r6, r7, lr}
  10031e:	1e05      	subs	r5, r0, #0
  100320:	d100      	bne.n	100324 <at45_free+0x8>
  100322:	e0ae      	b.n	100482 <at45_free+0x166>
  100324:	1f2e      	subs	r6, r5, #4
  100326:	2108      	movs	r1, #8
  100328:	1c30      	adds	r0, r6, #0
  10032a:	f000 fa19 	bl	100760 <at45_dereference>
  10032e:	2700      	movs	r7, #0
  100330:	2108      	movs	r1, #8
  100332:	6047      	str	r7, [r0, #4]
  100334:	1c32      	adds	r2, r6, #0
  100336:	1c04      	adds	r4, r0, #0
  100338:	f000 f9a5 	bl	100686 <at45_push>
  10033c:	4b52      	ldr	r3, [pc, #328]	; (100488 <at45_free+0x16c>)
  10033e:	6819      	ldr	r1, [r3, #0]
  100340:	9100      	str	r1, [sp, #0]
  100342:	42b9      	cmp	r1, r7
  100344:	d10c      	bne.n	100360 <at45_free+0x44>
  100346:	4851      	ldr	r0, [pc, #324]	; (10048c <at45_free+0x170>)
  100348:	6822      	ldr	r2, [r4, #0]
  10034a:	6801      	ldr	r1, [r0, #0]
  10034c:	18ad      	adds	r5, r5, r2
  10034e:	428d      	cmp	r5, r1
  100350:	d101      	bne.n	100356 <at45_free+0x3a>
  100352:	6006      	str	r6, [r0, #0]
  100354:	e08e      	b.n	100474 <at45_free+0x158>
  100356:	601e      	str	r6, [r3, #0]
  100358:	1c18      	adds	r0, r3, #0
  10035a:	2104      	movs	r1, #4
  10035c:	2220      	movs	r2, #32
  10035e:	e08b      	b.n	100478 <at45_free+0x15c>
  100360:	9800      	ldr	r0, [sp, #0]
  100362:	2108      	movs	r1, #8
  100364:	f000 f9fc 	bl	100760 <at45_dereference>
  100368:	9701      	str	r7, [sp, #4]
  10036a:	1c05      	adds	r5, r0, #0
  10036c:	e002      	b.n	100374 <at45_free+0x58>
  10036e:	9a02      	ldr	r2, [sp, #8]
  100370:	9200      	str	r2, [sp, #0]
  100372:	1c05      	adds	r5, r0, #0
  100374:	42a5      	cmp	r5, r4
  100376:	d20f      	bcs.n	100398 <at45_free+0x7c>
  100378:	686b      	ldr	r3, [r5, #4]
  10037a:	1c28      	adds	r0, r5, #0
  10037c:	9302      	str	r3, [sp, #8]
  10037e:	f001 fd5d 	bl	101e3c <free>
  100382:	2108      	movs	r1, #8
  100384:	6868      	ldr	r0, [r5, #4]
  100386:	f000 f9eb 	bl	100760 <at45_dereference>
  10038a:	9900      	ldr	r1, [sp, #0]
  10038c:	9a02      	ldr	r2, [sp, #8]
  10038e:	1c2f      	adds	r7, r5, #0
  100390:	9101      	str	r1, [sp, #4]
  100392:	2a00      	cmp	r2, #0
  100394:	d1eb      	bne.n	10036e <at45_free+0x52>
  100396:	e020      	b.n	1003da <at45_free+0xbe>
  100398:	9b00      	ldr	r3, [sp, #0]
  10039a:	6063      	str	r3, [r4, #4]
  10039c:	6823      	ldr	r3, [r4, #0]
  10039e:	9900      	ldr	r1, [sp, #0]
  1003a0:	1d1a      	adds	r2, r3, #4
  1003a2:	1992      	adds	r2, r2, r6
  1003a4:	428a      	cmp	r2, r1
  1003a6:	d105      	bne.n	1003b4 <at45_free+0x98>
  1003a8:	682a      	ldr	r2, [r5, #0]
  1003aa:	189b      	adds	r3, r3, r2
  1003ac:	3304      	adds	r3, #4
  1003ae:	6023      	str	r3, [r4, #0]
  1003b0:	686b      	ldr	r3, [r5, #4]
  1003b2:	6063      	str	r3, [r4, #4]
  1003b4:	1c20      	adds	r0, r4, #0
  1003b6:	2108      	movs	r1, #8
  1003b8:	1c32      	adds	r2, r6, #0
  1003ba:	f000 f964 	bl	100686 <at45_push>
  1003be:	1c28      	adds	r0, r5, #0
  1003c0:	2f00      	cmp	r7, #0
  1003c2:	d10a      	bne.n	1003da <at45_free+0xbe>
  1003c4:	4830      	ldr	r0, [pc, #192]	; (100488 <at45_free+0x16c>)
  1003c6:	2104      	movs	r1, #4
  1003c8:	2220      	movs	r2, #32
  1003ca:	6006      	str	r6, [r0, #0]
  1003cc:	f000 f95b 	bl	100686 <at45_push>
  1003d0:	1c20      	adds	r0, r4, #0
  1003d2:	f001 fd33 	bl	101e3c <free>
  1003d6:	1c28      	adds	r0, r5, #0
  1003d8:	e051      	b.n	10047e <at45_free+0x162>
  1003da:	f001 fd2f 	bl	101e3c <free>
  1003de:	9a01      	ldr	r2, [sp, #4]
  1003e0:	683b      	ldr	r3, [r7, #0]
  1003e2:	3204      	adds	r2, #4
  1003e4:	18d1      	adds	r1, r2, r3
  1003e6:	607e      	str	r6, [r7, #4]
  1003e8:	42b1      	cmp	r1, r6
  1003ea:	d105      	bne.n	1003f8 <at45_free+0xdc>
  1003ec:	6821      	ldr	r1, [r4, #0]
  1003ee:	185b      	adds	r3, r3, r1
  1003f0:	3304      	adds	r3, #4
  1003f2:	603b      	str	r3, [r7, #0]
  1003f4:	6863      	ldr	r3, [r4, #4]
  1003f6:	607b      	str	r3, [r7, #4]
  1003f8:	1c38      	adds	r0, r7, #0
  1003fa:	2108      	movs	r1, #8
  1003fc:	f000 f943 	bl	100686 <at45_push>
  100400:	4b21      	ldr	r3, [pc, #132]	; (100488 <at45_free+0x16c>)
  100402:	681b      	ldr	r3, [r3, #0]
  100404:	2108      	movs	r1, #8
  100406:	1c18      	adds	r0, r3, #0
  100408:	9300      	str	r3, [sp, #0]
  10040a:	f000 f9a9 	bl	100760 <at45_dereference>
  10040e:	2700      	movs	r7, #0
  100410:	1c05      	adds	r5, r0, #0
  100412:	1c3e      	adds	r6, r7, #0
  100414:	e010      	b.n	100438 <at45_free+0x11c>
  100416:	1c30      	adds	r0, r6, #0
  100418:	f001 fd10 	bl	101e3c <free>
  10041c:	6869      	ldr	r1, [r5, #4]
  10041e:	1c28      	adds	r0, r5, #0
  100420:	9101      	str	r1, [sp, #4]
  100422:	f001 fd0b 	bl	101e3c <free>
  100426:	6868      	ldr	r0, [r5, #4]
  100428:	2108      	movs	r1, #8
  10042a:	f000 f999 	bl	100760 <at45_dereference>
  10042e:	9a01      	ldr	r2, [sp, #4]
  100430:	9f00      	ldr	r7, [sp, #0]
  100432:	9200      	str	r2, [sp, #0]
  100434:	1c2e      	adds	r6, r5, #0
  100436:	1c05      	adds	r5, r0, #0
  100438:	686b      	ldr	r3, [r5, #4]
  10043a:	9301      	str	r3, [sp, #4]
  10043c:	2b00      	cmp	r3, #0
  10043e:	d1ea      	bne.n	100416 <at45_free+0xfa>
  100440:	1c28      	adds	r0, r5, #0
  100442:	f001 fcfb 	bl	101e3c <free>
  100446:	682a      	ldr	r2, [r5, #0]
  100448:	4d10      	ldr	r5, [pc, #64]	; (10048c <at45_free+0x170>)
  10044a:	682b      	ldr	r3, [r5, #0]
  10044c:	18ba      	adds	r2, r7, r2
  10044e:	429a      	cmp	r2, r3
  100450:	d114      	bne.n	10047c <at45_free+0x160>
  100452:	2e00      	cmp	r6, #0
  100454:	d104      	bne.n	100460 <at45_free+0x144>
  100456:	480c      	ldr	r0, [pc, #48]	; (100488 <at45_free+0x16c>)
  100458:	2104      	movs	r1, #4
  10045a:	6006      	str	r6, [r0, #0]
  10045c:	2220      	movs	r2, #32
  10045e:	e004      	b.n	10046a <at45_free+0x14e>
  100460:	9901      	ldr	r1, [sp, #4]
  100462:	1c30      	adds	r0, r6, #0
  100464:	6071      	str	r1, [r6, #4]
  100466:	1c3a      	adds	r2, r7, #0
  100468:	2108      	movs	r1, #8
  10046a:	3f04      	subs	r7, #4
  10046c:	f000 f90b 	bl	100686 <at45_push>
  100470:	602f      	str	r7, [r5, #0]
  100472:	1c28      	adds	r0, r5, #0
  100474:	2104      	movs	r1, #4
  100476:	2224      	movs	r2, #36	; 0x24
  100478:	f000 f905 	bl	100686 <at45_push>
  10047c:	1c20      	adds	r0, r4, #0
  10047e:	f001 fcdd 	bl	101e3c <free>
  100482:	bcf7      	pop	{r0, r1, r2, r4, r5, r6, r7}
  100484:	bc01      	pop	{r0}
  100486:	4700      	bx	r0
  100488:	00200a8c 	eoreq	r0, r0, ip, lsl #21
  10048c:	00200a90 	mlaeq	r0, r0, sl, r0

00100490 <at45_get_status>:
  100490:	b510      	push	{r4, lr}
  100492:	f7ff fe7b 	bl	10018c <at45_reset>
  100496:	20d7      	movs	r0, #215	; 0xd7
  100498:	f000 fdc8 	bl	10102c <spi_put>
  10049c:	f000 fdcd 	bl	10103a <spi_get>
  1004a0:	1c04      	adds	r4, r0, #0
  1004a2:	f7ff fe5f 	bl	100164 <at45_disable>
  1004a6:	1c20      	adds	r0, r4, #0
  1004a8:	bc10      	pop	{r4}
  1004aa:	bc02      	pop	{r1}
  1004ac:	4708      	bx	r1

001004ae <at45_wait>:
  1004ae:	b500      	push	{lr}
  1004b0:	f7ff ffee 	bl	100490 <at45_get_status>
  1004b4:	0603      	lsls	r3, r0, #24
  1004b6:	d5fb      	bpl.n	1004b0 <at45_wait+0x2>
  1004b8:	bc01      	pop	{r0}
  1004ba:	4700      	bx	r0

001004bc <at45_begin_continuous_read>:
  1004bc:	b5f0      	push	{r4, r5, r6, r7, lr}
  1004be:	040c      	lsls	r4, r1, #16
  1004c0:	0407      	lsls	r7, r0, #16
  1004c2:	f7ff fff4 	bl	1004ae <at45_wait>
  1004c6:	f7ff fe61 	bl	10018c <at45_reset>
  1004ca:	200b      	movs	r0, #11
  1004cc:	f000 fdae 	bl	10102c <spi_put>
  1004d0:	0db8      	lsrs	r0, r7, #22
  1004d2:	0600      	lsls	r0, r0, #24
  1004d4:	0c3e      	lsrs	r6, r7, #16
  1004d6:	0e00      	lsrs	r0, r0, #24
  1004d8:	f000 fda8 	bl	10102c <spi_put>
  1004dc:	00b6      	lsls	r6, r6, #2
  1004de:	0e20      	lsrs	r0, r4, #24
  1004e0:	4330      	orrs	r0, r6
  1004e2:	0600      	lsls	r0, r0, #24
  1004e4:	0c25      	lsrs	r5, r4, #16
  1004e6:	0e00      	lsrs	r0, r0, #24
  1004e8:	f000 fda0 	bl	10102c <spi_put>
  1004ec:	0628      	lsls	r0, r5, #24
  1004ee:	0e00      	lsrs	r0, r0, #24
  1004f0:	f000 fd9c 	bl	10102c <spi_put>
  1004f4:	2000      	movs	r0, #0
  1004f6:	f000 fd99 	bl	10102c <spi_put>
  1004fa:	bcf0      	pop	{r4, r5, r6, r7}
  1004fc:	bc01      	pop	{r0}
  1004fe:	4700      	bx	r0

00100500 <at45_begin_continuous_buffer_read>:
  100500:	b530      	push	{r4, r5, lr}
  100502:	0605      	lsls	r5, r0, #24
  100504:	040c      	lsls	r4, r1, #16
  100506:	0e2d      	lsrs	r5, r5, #24
  100508:	f7ff ffd1 	bl	1004ae <at45_wait>
  10050c:	0c24      	lsrs	r4, r4, #16
  10050e:	f7ff fe3d 	bl	10018c <at45_reset>
  100512:	20d4      	movs	r0, #212	; 0xd4
  100514:	2d01      	cmp	r5, #1
  100516:	d000      	beq.n	10051a <at45_begin_continuous_buffer_read+0x1a>
  100518:	20d6      	movs	r0, #214	; 0xd6
  10051a:	f000 fd87 	bl	10102c <spi_put>
  10051e:	2000      	movs	r0, #0
  100520:	f000 fd84 	bl	10102c <spi_put>
  100524:	0a20      	lsrs	r0, r4, #8
  100526:	f000 fd81 	bl	10102c <spi_put>
  10052a:	0620      	lsls	r0, r4, #24
  10052c:	0e00      	lsrs	r0, r0, #24
  10052e:	f000 fd7d 	bl	10102c <spi_put>
  100532:	bc30      	pop	{r4, r5}
  100534:	bc01      	pop	{r0}
  100536:	4700      	bx	r0

00100538 <at45_transfer_buffer_to_page_with_erase>:
  100538:	b570      	push	{r4, r5, r6, lr}
  10053a:	0606      	lsls	r6, r0, #24
  10053c:	040c      	lsls	r4, r1, #16
  10053e:	0615      	lsls	r5, r2, #24
  100540:	0e36      	lsrs	r6, r6, #24
  100542:	0c24      	lsrs	r4, r4, #16
  100544:	0e2d      	lsrs	r5, r5, #24
  100546:	f7ff ffb2 	bl	1004ae <at45_wait>
  10054a:	f7ff fe1f 	bl	10018c <at45_reset>
  10054e:	2e01      	cmp	r6, #1
  100550:	d104      	bne.n	10055c <at45_transfer_buffer_to_page_with_erase+0x24>
  100552:	2083      	movs	r0, #131	; 0x83
  100554:	2d00      	cmp	r5, #0
  100556:	d105      	bne.n	100564 <at45_transfer_buffer_to_page_with_erase+0x2c>
  100558:	2088      	movs	r0, #136	; 0x88
  10055a:	e003      	b.n	100564 <at45_transfer_buffer_to_page_with_erase+0x2c>
  10055c:	2086      	movs	r0, #134	; 0x86
  10055e:	2d00      	cmp	r5, #0
  100560:	d100      	bne.n	100564 <at45_transfer_buffer_to_page_with_erase+0x2c>
  100562:	2089      	movs	r0, #137	; 0x89
  100564:	f000 fd62 	bl	10102c <spi_put>
  100568:	09a0      	lsrs	r0, r4, #6
  10056a:	0600      	lsls	r0, r0, #24
  10056c:	0e00      	lsrs	r0, r0, #24
  10056e:	00a4      	lsls	r4, r4, #2
  100570:	f000 fd5c 	bl	10102c <spi_put>
  100574:	0620      	lsls	r0, r4, #24
  100576:	0e00      	lsrs	r0, r0, #24
  100578:	f000 fd58 	bl	10102c <spi_put>
  10057c:	2000      	movs	r0, #0
  10057e:	f000 fd55 	bl	10102c <spi_put>
  100582:	f7ff fdef 	bl	100164 <at45_disable>
  100586:	bc70      	pop	{r4, r5, r6}
  100588:	bc01      	pop	{r0}
  10058a:	4700      	bx	r0

0010058c <at45_transfer_page_to_buffer_with_erase>:
  10058c:	b530      	push	{r4, r5, lr}
  10058e:	0404      	lsls	r4, r0, #16
  100590:	060d      	lsls	r5, r1, #24
  100592:	0c24      	lsrs	r4, r4, #16
  100594:	f7ff ff8b 	bl	1004ae <at45_wait>
  100598:	0e2d      	lsrs	r5, r5, #24
  10059a:	f7ff fdf7 	bl	10018c <at45_reset>
  10059e:	2053      	movs	r0, #83	; 0x53
  1005a0:	2d01      	cmp	r5, #1
  1005a2:	d000      	beq.n	1005a6 <at45_transfer_page_to_buffer_with_erase+0x1a>
  1005a4:	2055      	movs	r0, #85	; 0x55
  1005a6:	f000 fd41 	bl	10102c <spi_put>
  1005aa:	09a0      	lsrs	r0, r4, #6
  1005ac:	0600      	lsls	r0, r0, #24
  1005ae:	0e00      	lsrs	r0, r0, #24
  1005b0:	00a4      	lsls	r4, r4, #2
  1005b2:	f000 fd3b 	bl	10102c <spi_put>
  1005b6:	0620      	lsls	r0, r4, #24
  1005b8:	0e00      	lsrs	r0, r0, #24
  1005ba:	f000 fd37 	bl	10102c <spi_put>
  1005be:	2000      	movs	r0, #0
  1005c0:	f000 fd34 	bl	10102c <spi_put>
  1005c4:	f7ff fdce 	bl	100164 <at45_disable>
  1005c8:	bc30      	pop	{r4, r5}
  1005ca:	bc01      	pop	{r0}
  1005cc:	4700      	bx	r0

001005ce <at45_begin_writing_to_buffer_with_offset>:
  1005ce:	b530      	push	{r4, r5, lr}
  1005d0:	0605      	lsls	r5, r0, #24
  1005d2:	040c      	lsls	r4, r1, #16
  1005d4:	0e2d      	lsrs	r5, r5, #24
  1005d6:	f7ff ff6a 	bl	1004ae <at45_wait>
  1005da:	0c24      	lsrs	r4, r4, #16
  1005dc:	f7ff fdd6 	bl	10018c <at45_reset>
  1005e0:	2084      	movs	r0, #132	; 0x84
  1005e2:	2d01      	cmp	r5, #1
  1005e4:	d000      	beq.n	1005e8 <at45_begin_writing_to_buffer_with_offset+0x1a>
  1005e6:	2087      	movs	r0, #135	; 0x87
  1005e8:	f000 fd20 	bl	10102c <spi_put>
  1005ec:	2000      	movs	r0, #0
  1005ee:	f000 fd1d 	bl	10102c <spi_put>
  1005f2:	0a20      	lsrs	r0, r4, #8
  1005f4:	f000 fd1a 	bl	10102c <spi_put>
  1005f8:	0620      	lsls	r0, r4, #24
  1005fa:	0e00      	lsrs	r0, r0, #24
  1005fc:	f000 fd16 	bl	10102c <spi_put>
  100600:	bc30      	pop	{r4, r5}
  100602:	bc01      	pop	{r0}
  100604:	4700      	bx	r0

00100606 <at45_begin_reading_from_page_with_offset>:
  100606:	b5f0      	push	{r4, r5, r6, r7, lr}
  100608:	040c      	lsls	r4, r1, #16
  10060a:	0407      	lsls	r7, r0, #16
  10060c:	f7ff ff4f 	bl	1004ae <at45_wait>
  100610:	f7ff fdbc 	bl	10018c <at45_reset>
  100614:	20d2      	movs	r0, #210	; 0xd2
  100616:	f000 fd09 	bl	10102c <spi_put>
  10061a:	0db8      	lsrs	r0, r7, #22
  10061c:	0600      	lsls	r0, r0, #24
  10061e:	0c3e      	lsrs	r6, r7, #16
  100620:	0e00      	lsrs	r0, r0, #24
  100622:	f000 fd03 	bl	10102c <spi_put>
  100626:	00b6      	lsls	r6, r6, #2
  100628:	0e20      	lsrs	r0, r4, #24
  10062a:	4330      	orrs	r0, r6
  10062c:	0600      	lsls	r0, r0, #24
  10062e:	0c25      	lsrs	r5, r4, #16
  100630:	0e00      	lsrs	r0, r0, #24
  100632:	f000 fcfb 	bl	10102c <spi_put>
  100636:	0628      	lsls	r0, r5, #24
  100638:	0e00      	lsrs	r0, r0, #24
  10063a:	f000 fcf7 	bl	10102c <spi_put>
  10063e:	2000      	movs	r0, #0
  100640:	f000 fcf4 	bl	10102c <spi_put>
  100644:	2000      	movs	r0, #0
  100646:	f000 fcf1 	bl	10102c <spi_put>
  10064a:	2000      	movs	r0, #0
  10064c:	f000 fcee 	bl	10102c <spi_put>
  100650:	2000      	movs	r0, #0
  100652:	f000 fceb 	bl	10102c <spi_put>
  100656:	bcf0      	pop	{r4, r5, r6, r7}
  100658:	bc01      	pop	{r0}
  10065a:	4700      	bx	r0

0010065c <at45_reset_settings>:
  10065c:	b500      	push	{lr}
  10065e:	f7ff ff26 	bl	1004ae <at45_wait>
  100662:	f7ff fd93 	bl	10018c <at45_reset>
  100666:	203d      	movs	r0, #61	; 0x3d
  100668:	f000 fce0 	bl	10102c <spi_put>
  10066c:	202a      	movs	r0, #42	; 0x2a
  10066e:	f000 fcdd 	bl	10102c <spi_put>
  100672:	2080      	movs	r0, #128	; 0x80
  100674:	f000 fcda 	bl	10102c <spi_put>
  100678:	20a6      	movs	r0, #166	; 0xa6
  10067a:	f000 fcd7 	bl	10102c <spi_put>
  10067e:	f7ff fd71 	bl	100164 <at45_disable>
  100682:	bc01      	pop	{r0}
  100684:	4700      	bx	r0

00100686 <at45_push>:
  100686:	b5f1      	push	{r0, r4, r5, r6, r7, lr}
  100688:	9100      	str	r1, [sp, #0]
  10068a:	2184      	movs	r1, #132	; 0x84
  10068c:	1c06      	adds	r6, r0, #0
  10068e:	0089      	lsls	r1, r1, #2
  100690:	1c10      	adds	r0, r2, #0
  100692:	1c15      	adds	r5, r2, #0
  100694:	f001 fb06 	bl	101ca4 <__aeabi_uidiv>
  100698:	2184      	movs	r1, #132	; 0x84
  10069a:	0404      	lsls	r4, r0, #16
  10069c:	0089      	lsls	r1, r1, #2
  10069e:	1c28      	adds	r0, r5, #0
  1006a0:	f001 fb48 	bl	101d34 <__umodsi3>
  1006a4:	0c24      	lsrs	r4, r4, #16
  1006a6:	1c07      	adds	r7, r0, #0
  1006a8:	0405      	lsls	r5, r0, #16
  1006aa:	2100      	movs	r1, #0
  1006ac:	1c20      	adds	r0, r4, #0
  1006ae:	f7ff ff6d 	bl	10058c <at45_transfer_page_to_buffer_with_erase>
  1006b2:	2000      	movs	r0, #0
  1006b4:	1c39      	adds	r1, r7, #0
  1006b6:	f7ff ff8a 	bl	1005ce <at45_begin_writing_to_buffer_with_offset>
  1006ba:	9b00      	ldr	r3, [sp, #0]
  1006bc:	18f3      	adds	r3, r6, r3
  1006be:	0c2d      	lsrs	r5, r5, #16
  1006c0:	9300      	str	r3, [sp, #0]
  1006c2:	e01f      	b.n	100704 <at45_push+0x7e>
  1006c4:	3501      	adds	r5, #1
  1006c6:	7830      	ldrb	r0, [r6, #0]
  1006c8:	042d      	lsls	r5, r5, #16
  1006ca:	f000 fcaf 	bl	10102c <spi_put>
  1006ce:	0c2d      	lsrs	r5, r5, #16
  1006d0:	2184      	movs	r1, #132	; 0x84
  1006d2:	1c28      	adds	r0, r5, #0
  1006d4:	0089      	lsls	r1, r1, #2
  1006d6:	f001 fb2d 	bl	101d34 <__umodsi3>
  1006da:	0407      	lsls	r7, r0, #16
  1006dc:	3601      	adds	r6, #1
  1006de:	0c3f      	lsrs	r7, r7, #16
  1006e0:	d110      	bne.n	100704 <at45_push+0x7e>
  1006e2:	1c21      	adds	r1, r4, #0
  1006e4:	3401      	adds	r4, #1
  1006e6:	0424      	lsls	r4, r4, #16
  1006e8:	2201      	movs	r2, #1
  1006ea:	1c38      	adds	r0, r7, #0
  1006ec:	0c24      	lsrs	r4, r4, #16
  1006ee:	f7ff ff23 	bl	100538 <at45_transfer_buffer_to_page_with_erase>
  1006f2:	1c20      	adds	r0, r4, #0
  1006f4:	1c39      	adds	r1, r7, #0
  1006f6:	f7ff ff49 	bl	10058c <at45_transfer_page_to_buffer_with_erase>
  1006fa:	1c38      	adds	r0, r7, #0
  1006fc:	1c39      	adds	r1, r7, #0
  1006fe:	f7ff ff66 	bl	1005ce <at45_begin_writing_to_buffer_with_offset>
  100702:	1c3d      	adds	r5, r7, #0
  100704:	9b00      	ldr	r3, [sp, #0]
  100706:	429e      	cmp	r6, r3
  100708:	d1dc      	bne.n	1006c4 <at45_push+0x3e>
  10070a:	2000      	movs	r0, #0
  10070c:	1c21      	adds	r1, r4, #0
  10070e:	2201      	movs	r2, #1
  100710:	f7ff ff12 	bl	100538 <at45_transfer_buffer_to_page_with_erase>
  100714:	f7ff fd26 	bl	100164 <at45_disable>
  100718:	bcf1      	pop	{r0, r4, r5, r6, r7}
  10071a:	bc01      	pop	{r0}
  10071c:	4700      	bx	r0

0010071e <at45_pull>:
  10071e:	b5f0      	push	{r4, r5, r6, r7, lr}
  100720:	1c0f      	adds	r7, r1, #0
  100722:	2184      	movs	r1, #132	; 0x84
  100724:	1c04      	adds	r4, r0, #0
  100726:	0089      	lsls	r1, r1, #2
  100728:	1c10      	adds	r0, r2, #0
  10072a:	1c16      	adds	r6, r2, #0
  10072c:	f001 faba 	bl	101ca4 <__aeabi_uidiv>
  100730:	2184      	movs	r1, #132	; 0x84
  100732:	0405      	lsls	r5, r0, #16
  100734:	0089      	lsls	r1, r1, #2
  100736:	1c30      	adds	r0, r6, #0
  100738:	f001 fafc 	bl	101d34 <__umodsi3>
  10073c:	0c2d      	lsrs	r5, r5, #16
  10073e:	1c01      	adds	r1, r0, #0
  100740:	1c28      	adds	r0, r5, #0
  100742:	f7ff febb 	bl	1004bc <at45_begin_continuous_read>
  100746:	19e5      	adds	r5, r4, r7
  100748:	e003      	b.n	100752 <at45_pull+0x34>
  10074a:	f000 fc76 	bl	10103a <spi_get>
  10074e:	7020      	strb	r0, [r4, #0]
  100750:	3401      	adds	r4, #1
  100752:	42ac      	cmp	r4, r5
  100754:	d1f9      	bne.n	10074a <at45_pull+0x2c>
  100756:	f7ff fd05 	bl	100164 <at45_disable>
  10075a:	bcf0      	pop	{r4, r5, r6, r7}
  10075c:	bc01      	pop	{r0}
  10075e:	4700      	bx	r0

00100760 <at45_dereference>:
  100760:	b570      	push	{r4, r5, r6, lr}
  100762:	1c06      	adds	r6, r0, #0
  100764:	1c08      	adds	r0, r1, #0
  100766:	1c0d      	adds	r5, r1, #0
  100768:	f001 fb5e 	bl	101e28 <malloc>
  10076c:	1c29      	adds	r1, r5, #0
  10076e:	1c04      	adds	r4, r0, #0
  100770:	1c32      	adds	r2, r6, #0
  100772:	f7ff ffd4 	bl	10071e <at45_pull>
  100776:	1c20      	adds	r0, r4, #0
  100778:	bc70      	pop	{r4, r5, r6}
  10077a:	bc02      	pop	{r1}
  10077c:	4708      	bx	r1

0010077e <button_configure>:
  10077e:	4770      	bx	lr

00100780 <button_read>:
  100780:	2000      	movs	r0, #0
  100782:	4770      	bx	lr

00100784 <error_configure>:
  100784:	4770      	bx	lr

00100786 <error_raise>:
  100786:	4770      	bx	lr

00100788 <error_message>:
  100788:	4800      	ldr	r0, [pc, #0]	; (10078c <error_message+0x4>)
  10078a:	4770      	bx	lr
  10078c:	00109077 	andseq	r9, r0, r7, ror r0

00100790 <fdl_configure>:
  100790:	4b02      	ldr	r3, [pc, #8]	; (10079c <fdl_configure+0xc>)
  100792:	22c8      	movs	r2, #200	; 0xc8
  100794:	0052      	lsls	r2, r2, #1
  100796:	601a      	str	r2, [r3, #0]
  100798:	4770      	bx	lr
  10079a:	46c0      	nop			; (mov r8, r8)
  10079c:	00200a88 	eoreq	r0, r0, r8, lsl #21

001007a0 <fdl_load>:
  1007a0:	b5ff      	push	{r0, r1, r2, r3, r4, r5, r6, r7, lr}
  1007a2:	0404      	lsls	r4, r0, #16
  1007a4:	4b61      	ldr	r3, [pc, #388]	; (10092c <fdl_load+0x18c>)
  1007a6:	0c24      	lsrs	r4, r4, #16
  1007a8:	6818      	ldr	r0, [r3, #0]
  1007aa:	1c21      	adds	r1, r4, #0
  1007ac:	f000 f976 	bl	100a9c <fs_leaf_for_key>
  1007b0:	1e05      	subs	r5, r0, #0
  1007b2:	d10d      	bne.n	1007d0 <fdl_load+0x30>
  1007b4:	4e5e      	ldr	r6, [pc, #376]	; (100930 <fdl_load+0x190>)
  1007b6:	495f      	ldr	r1, [pc, #380]	; (100934 <fdl_load+0x194>)
  1007b8:	1c22      	adds	r2, r4, #0
  1007ba:	1c30      	adds	r0, r6, #0
  1007bc:	f001 fdc4 	bl	102348 <sprintf>
  1007c0:	4b5d      	ldr	r3, [pc, #372]	; (100938 <fdl_load+0x198>)
  1007c2:	1c01      	adds	r1, r0, #0
  1007c4:	699b      	ldr	r3, [r3, #24]
  1007c6:	1c30      	adds	r0, r6, #0
  1007c8:	f000 f8c2 	bl	100950 <fdl_load+0x1b0>
  1007cc:	1c28      	adds	r0, r5, #0
  1007ce:	e0a9      	b.n	100924 <fdl_load+0x184>
  1007d0:	1c28      	adds	r0, r5, #0
  1007d2:	211a      	movs	r1, #26
  1007d4:	f7ff ffc4 	bl	100760 <at45_dereference>
  1007d8:	7ac3      	ldrb	r3, [r0, #11]
  1007da:	7a82      	ldrb	r2, [r0, #10]
  1007dc:	021b      	lsls	r3, r3, #8
  1007de:	4313      	orrs	r3, r2
  1007e0:	7b02      	ldrb	r2, [r0, #12]
  1007e2:	0412      	lsls	r2, r2, #16
  1007e4:	4313      	orrs	r3, r2
  1007e6:	7b42      	ldrb	r2, [r0, #13]
  1007e8:	0612      	lsls	r2, r2, #24
  1007ea:	431a      	orrs	r2, r3
  1007ec:	1c04      	adds	r4, r0, #0
  1007ee:	9200      	str	r2, [sp, #0]
  1007f0:	2a00      	cmp	r2, #0
  1007f2:	d016      	beq.n	100822 <fdl_load+0x82>
  1007f4:	4d4e      	ldr	r5, [pc, #312]	; (100930 <fdl_load+0x190>)
  1007f6:	4951      	ldr	r1, [pc, #324]	; (10093c <fdl_load+0x19c>)
  1007f8:	1c28      	adds	r0, r5, #0
  1007fa:	f001 fda5 	bl	102348 <sprintf>
  1007fe:	4b4e      	ldr	r3, [pc, #312]	; (100938 <fdl_load+0x198>)
  100800:	1c01      	adds	r1, r0, #0
  100802:	699b      	ldr	r3, [r3, #24]
  100804:	1c28      	adds	r0, r5, #0
  100806:	f000 f8a3 	bl	100950 <fdl_load+0x1b0>
  10080a:	7ae3      	ldrb	r3, [r4, #11]
  10080c:	7aa2      	ldrb	r2, [r4, #10]
  10080e:	021b      	lsls	r3, r3, #8
  100810:	4313      	orrs	r3, r2
  100812:	7b22      	ldrb	r2, [r4, #12]
  100814:	0412      	lsls	r2, r2, #16
  100816:	4313      	orrs	r3, r2
  100818:	7b62      	ldrb	r2, [r4, #13]
  10081a:	0612      	lsls	r2, r2, #24
  10081c:	4313      	orrs	r3, r2
  10081e:	9303      	str	r3, [sp, #12]
  100820:	e071      	b.n	100906 <fdl_load+0x166>
  100822:	78c3      	ldrb	r3, [r0, #3]
  100824:	7882      	ldrb	r2, [r0, #2]
  100826:	021b      	lsls	r3, r3, #8
  100828:	4313      	orrs	r3, r2
  10082a:	7902      	ldrb	r2, [r0, #4]
  10082c:	0412      	lsls	r2, r2, #16
  10082e:	4313      	orrs	r3, r2
  100830:	7942      	ldrb	r2, [r0, #5]
  100832:	0612      	lsls	r2, r2, #24
  100834:	4313      	orrs	r3, r2
  100836:	337f      	adds	r3, #127	; 0x7f
  100838:	09db      	lsrs	r3, r3, #7
  10083a:	9301      	str	r3, [sp, #4]
  10083c:	79c7      	ldrb	r7, [r0, #7]
  10083e:	7983      	ldrb	r3, [r0, #6]
  100840:	023f      	lsls	r7, r7, #8
  100842:	431f      	orrs	r7, r3
  100844:	7a03      	ldrb	r3, [r0, #8]
  100846:	041b      	lsls	r3, r3, #16
  100848:	431f      	orrs	r7, r3
  10084a:	7a43      	ldrb	r3, [r0, #9]
  10084c:	061b      	lsls	r3, r3, #24
  10084e:	431f      	orrs	r7, r3
  100850:	2184      	movs	r1, #132	; 0x84
  100852:	0089      	lsls	r1, r1, #2
  100854:	1c38      	adds	r0, r7, #0
  100856:	f001 fa25 	bl	101ca4 <__aeabi_uidiv>
  10085a:	2184      	movs	r1, #132	; 0x84
  10085c:	0406      	lsls	r6, r0, #16
  10085e:	0089      	lsls	r1, r1, #2
  100860:	1c38      	adds	r0, r7, #0
  100862:	f001 fa67 	bl	101d34 <__umodsi3>
  100866:	0c36      	lsrs	r6, r6, #16
  100868:	1c01      	adds	r1, r0, #0
  10086a:	1c30      	adds	r0, r6, #0
  10086c:	f7ff fe26 	bl	1004bc <at45_begin_continuous_read>
  100870:	4b33      	ldr	r3, [pc, #204]	; (100940 <fdl_load+0x1a0>)
  100872:	4934      	ldr	r1, [pc, #208]	; (100944 <fdl_load+0x1a4>)
  100874:	6e1a      	ldr	r2, [r3, #96]	; 0x60
  100876:	430a      	orrs	r2, r1
  100878:	661a      	str	r2, [r3, #96]	; 0x60
  10087a:	6e1a      	ldr	r2, [r3, #96]	; 0x60
  10087c:	2180      	movs	r1, #128	; 0x80
  10087e:	438a      	bics	r2, r1
  100880:	661a      	str	r2, [r3, #96]	; 0x60
  100882:	9e00      	ldr	r6, [sp, #0]
  100884:	e029      	b.n	1008da <fdl_load+0x13a>
  100886:	2700      	movs	r7, #0
  100888:	f000 fbd7 	bl	10103a <spi_get>
  10088c:	9002      	str	r0, [sp, #8]
  10088e:	f000 fbd4 	bl	10103a <spi_get>
  100892:	9000      	str	r0, [sp, #0]
  100894:	f000 fbd1 	bl	10103a <spi_get>
  100898:	9a00      	ldr	r2, [sp, #0]
  10089a:	0400      	lsls	r0, r0, #16
  10089c:	0213      	lsls	r3, r2, #8
  10089e:	4318      	orrs	r0, r3
  1008a0:	9000      	str	r0, [sp, #0]
  1008a2:	f000 fbca 	bl	10103a <spi_get>
  1008a6:	9b02      	ldr	r3, [sp, #8]
  1008a8:	0600      	lsls	r0, r0, #24
  1008aa:	4318      	orrs	r0, r3
  1008ac:	4b26      	ldr	r3, [pc, #152]	; (100948 <fdl_load+0x1a8>)
  1008ae:	681b      	ldr	r3, [r3, #0]
  1008b0:	18f3      	adds	r3, r6, r3
  1008b2:	015b      	lsls	r3, r3, #5
  1008b4:	19db      	adds	r3, r3, r7
  1008b6:	2280      	movs	r2, #128	; 0x80
  1008b8:	0352      	lsls	r2, r2, #13
  1008ba:	009b      	lsls	r3, r3, #2
  1008bc:	189b      	adds	r3, r3, r2
  1008be:	9a00      	ldr	r2, [sp, #0]
  1008c0:	3701      	adds	r7, #1
  1008c2:	4310      	orrs	r0, r2
  1008c4:	6018      	str	r0, [r3, #0]
  1008c6:	2f20      	cmp	r7, #32
  1008c8:	d1de      	bne.n	100888 <fdl_load+0xe8>
  1008ca:	23c8      	movs	r3, #200	; 0xc8
  1008cc:	005b      	lsls	r3, r3, #1
  1008ce:	18f0      	adds	r0, r6, r3
  1008d0:	0400      	lsls	r0, r0, #16
  1008d2:	0c00      	lsrs	r0, r0, #16
  1008d4:	f0ff fba4 	bl	200020 <write_page>
  1008d8:	3601      	adds	r6, #1
  1008da:	9a01      	ldr	r2, [sp, #4]
  1008dc:	4296      	cmp	r6, r2
  1008de:	d1d2      	bne.n	100886 <fdl_load+0xe6>
  1008e0:	f7ff fc40 	bl	100164 <at45_disable>
  1008e4:	4f18      	ldr	r7, [pc, #96]	; (100948 <fdl_load+0x1a8>)
  1008e6:	683a      	ldr	r2, [r7, #0]
  1008e8:	01d3      	lsls	r3, r2, #7
  1008ea:	2280      	movs	r2, #128	; 0x80
  1008ec:	0352      	lsls	r2, r2, #13
  1008ee:	189b      	adds	r3, r3, r2
  1008f0:	1c2a      	adds	r2, r5, #0
  1008f2:	320a      	adds	r2, #10
  1008f4:	a803      	add	r0, sp, #12
  1008f6:	2104      	movs	r1, #4
  1008f8:	9303      	str	r3, [sp, #12]
  1008fa:	f7ff fec4 	bl	100686 <at45_push>
  1008fe:	683b      	ldr	r3, [r7, #0]
  100900:	3301      	adds	r3, #1
  100902:	199e      	adds	r6, r3, r6
  100904:	603e      	str	r6, [r7, #0]
  100906:	1c20      	adds	r0, r4, #0
  100908:	f001 fa98 	bl	101e3c <free>
  10090c:	4c08      	ldr	r4, [pc, #32]	; (100930 <fdl_load+0x190>)
  10090e:	490f      	ldr	r1, [pc, #60]	; (10094c <fdl_load+0x1ac>)
  100910:	1c20      	adds	r0, r4, #0
  100912:	f001 fd19 	bl	102348 <sprintf>
  100916:	4b08      	ldr	r3, [pc, #32]	; (100938 <fdl_load+0x198>)
  100918:	1c01      	adds	r1, r0, #0
  10091a:	699b      	ldr	r3, [r3, #24]
  10091c:	1c20      	adds	r0, r4, #0
  10091e:	f000 f817 	bl	100950 <fdl_load+0x1b0>
  100922:	9803      	ldr	r0, [sp, #12]
  100924:	b004      	add	sp, #16
  100926:	bcf0      	pop	{r4, r5, r6, r7}
  100928:	bc02      	pop	{r1}
  10092a:	4708      	bx	r1
  10092c:	00200a94 	mlaeq	r0, r4, sl, r0
  100930:	00200a48 	eoreq	r0, r0, r8, asr #20
  100934:	00108dcc 	andseq	r8, r0, ip, asr #27
  100938:	001090c8 	andseq	r9, r0, r8, asr #1
  10093c:	00108dfc 			; <UNDEFINED> instruction: 0x00108dfc
  100940:	ffffff00 			; <UNDEFINED> instruction: 0xffffff00
  100944:	00300100 	eorseq	r0, r0, r0, lsl #2
  100948:	00200a88 	eoreq	r0, r0, r8, lsl #21
  10094c:	00108e19 	andseq	r8, r0, r9, lsl lr
  100950:	4718      	bx	r3
  100952:	46c0      	nop			; (mov r8, r8)

00100954 <fdl_terminate>:
  100954:	4770      	bx	lr
  100956:	ffff 0400 	vraddhn.i<illegal width 128>	d16, <illegal reg q7.5>, q0

00100958 <fdl_launch>:
  100958:	0400      	lsls	r0, r0, #16
  10095a:	b500      	push	{lr}
  10095c:	0c00      	lsrs	r0, r0, #16
  10095e:	f7ff ff1f 	bl	1007a0 <fdl_load>
  100962:	4b02      	ldr	r3, [pc, #8]	; (10096c <fdl_launch+0x14>)
  100964:	6018      	str	r0, [r3, #0]
  100966:	bc01      	pop	{r0}
  100968:	4700      	bx	r0
  10096a:	46c0      	nop			; (mov r8, r8)
  10096c:	00200ae8 	eoreq	r0, r0, r8, ror #21

00100970 <fdl_resolve>:
  100970:	4770      	bx	lr
  100972:	ffff 0409 	vraddhn.i<illegal width 128>	d16, <illegal reg q7.5>, <illegal reg q4.5>

00100974 <checksum>:
  100974:	0409      	lsls	r1, r1, #16
  100976:	b5f0      	push	{r4, r5, r6, r7, lr}
  100978:	1c03      	adds	r3, r0, #0
  10097a:	0c09      	lsrs	r1, r1, #16
  10097c:	2000      	movs	r0, #0
  10097e:	4a0b      	ldr	r2, [pc, #44]	; (1009ac <checksum+0x38>)
  100980:	4c0b      	ldr	r4, [pc, #44]	; (1009b0 <checksum+0x3c>)
  100982:	25ff      	movs	r5, #255	; 0xff
  100984:	e00a      	b.n	10099c <checksum+0x28>
  100986:	781f      	ldrb	r7, [r3, #0]
  100988:	0a06      	lsrs	r6, r0, #8
  10098a:	407e      	eors	r6, r7
  10098c:	402e      	ands	r6, r5
  10098e:	0076      	lsls	r6, r6, #1
  100990:	5b36      	ldrh	r6, [r6, r4]
  100992:	0200      	lsls	r0, r0, #8
  100994:	4070      	eors	r0, r6
  100996:	0400      	lsls	r0, r0, #16
  100998:	0c00      	lsrs	r0, r0, #16
  10099a:	3301      	adds	r3, #1
  10099c:	3901      	subs	r1, #1
  10099e:	0409      	lsls	r1, r1, #16
  1009a0:	0c09      	lsrs	r1, r1, #16
  1009a2:	4291      	cmp	r1, r2
  1009a4:	d1ef      	bne.n	100986 <checksum+0x12>
  1009a6:	bcf0      	pop	{r4, r5, r6, r7}
  1009a8:	bc02      	pop	{r1}
  1009aa:	4708      	bx	r1
  1009ac:	0000ffff 	strdeq	pc, [r0], -pc	; <UNPREDICTABLE>
  1009b0:	00108e38 	andseq	r8, r0, r8, lsr lr

001009b4 <fs_empty_branch_for_key>:
  1009b4:	b530      	push	{r4, r5, lr}
  1009b6:	0414      	lsls	r4, r2, #16
  1009b8:	1c0d      	adds	r5, r1, #0
  1009ba:	0c24      	lsrs	r4, r4, #16
  1009bc:	2900      	cmp	r1, #0
  1009be:	d029      	beq.n	100a14 <fs_empty_branch_for_key+0x60>
  1009c0:	1c08      	adds	r0, r1, #0
  1009c2:	211a      	movs	r1, #26
  1009c4:	f7ff fecc 	bl	100760 <at45_dereference>
  1009c8:	7842      	ldrb	r2, [r0, #1]
  1009ca:	7801      	ldrb	r1, [r0, #0]
  1009cc:	0212      	lsls	r2, r2, #8
  1009ce:	1c03      	adds	r3, r0, #0
  1009d0:	430a      	orrs	r2, r1
  1009d2:	42a2      	cmp	r2, r4
  1009d4:	d20a      	bcs.n	1009ec <fs_empty_branch_for_key+0x38>
  1009d6:	7cd9      	ldrb	r1, [r3, #19]
  1009d8:	7c9a      	ldrb	r2, [r3, #18]
  1009da:	0209      	lsls	r1, r1, #8
  1009dc:	4311      	orrs	r1, r2
  1009de:	7d1a      	ldrb	r2, [r3, #20]
  1009e0:	1c28      	adds	r0, r5, #0
  1009e2:	0412      	lsls	r2, r2, #16
  1009e4:	3012      	adds	r0, #18
  1009e6:	4311      	orrs	r1, r2
  1009e8:	7d5b      	ldrb	r3, [r3, #21]
  1009ea:	e00b      	b.n	100a04 <fs_empty_branch_for_key+0x50>
  1009ec:	42a2      	cmp	r2, r4
  1009ee:	d90f      	bls.n	100a10 <fs_empty_branch_for_key+0x5c>
  1009f0:	7dd9      	ldrb	r1, [r3, #23]
  1009f2:	7d9a      	ldrb	r2, [r3, #22]
  1009f4:	0209      	lsls	r1, r1, #8
  1009f6:	4311      	orrs	r1, r2
  1009f8:	7e1a      	ldrb	r2, [r3, #24]
  1009fa:	1c28      	adds	r0, r5, #0
  1009fc:	0412      	lsls	r2, r2, #16
  1009fe:	7e5b      	ldrb	r3, [r3, #25]
  100a00:	3016      	adds	r0, #22
  100a02:	4311      	orrs	r1, r2
  100a04:	061b      	lsls	r3, r3, #24
  100a06:	4319      	orrs	r1, r3
  100a08:	1c22      	adds	r2, r4, #0
  100a0a:	f7ff ffd3 	bl	1009b4 <fs_empty_branch_for_key>
  100a0e:	e001      	b.n	100a14 <fs_empty_branch_for_key+0x60>
  100a10:	2001      	movs	r0, #1
  100a12:	4240      	negs	r0, r0
  100a14:	bc30      	pop	{r4, r5}
  100a16:	bc02      	pop	{r1}
  100a18:	4708      	bx	r1
  100a1a:	ffff b5f3 	vsli.64	<illegal reg q13.5>, <illegal reg q9.5>, #63	; 0x3f

00100a1c <fs_add_leaf_with_key>:
  100a1c:	b5f3      	push	{r0, r1, r4, r5, r6, r7, lr}
  100a1e:	0409      	lsls	r1, r1, #16
  100a20:	1c03      	adds	r3, r0, #0
  100a22:	0c0f      	lsrs	r7, r1, #16
  100a24:	9100      	str	r1, [sp, #0]
  100a26:	2000      	movs	r0, #0
  100a28:	1c19      	adds	r1, r3, #0
  100a2a:	1c3a      	adds	r2, r7, #0
  100a2c:	f7ff ffc2 	bl	1009b4 <fs_empty_branch_for_key>
  100a30:	2600      	movs	r6, #0
  100a32:	1c05      	adds	r5, r0, #0
  100a34:	1c42      	adds	r2, r0, #1
  100a36:	d02a      	beq.n	100a8e <fs_add_leaf_with_key+0x72>
  100a38:	201a      	movs	r0, #26
  100a3a:	f7ff fbcd 	bl	1001d8 <at45_alloc>
  100a3e:	9001      	str	r0, [sp, #4]
  100a40:	42b0      	cmp	r0, r6
  100a42:	d103      	bne.n	100a4c <fs_add_leaf_with_key+0x30>
  100a44:	4814      	ldr	r0, [pc, #80]	; (100a98 <fs_add_leaf_with_key+0x7c>)
  100a46:	f001 fc3b 	bl	1022c0 <printf>
  100a4a:	e020      	b.n	100a8e <fs_add_leaf_with_key+0x72>
  100a4c:	201a      	movs	r0, #26
  100a4e:	f001 f9eb 	bl	101e28 <malloc>
  100a52:	1c31      	adds	r1, r6, #0
  100a54:	221a      	movs	r2, #26
  100a56:	1c04      	adds	r4, r0, #0
  100a58:	f001 fc1b 	bl	102292 <memset>
  100a5c:	1c2a      	adds	r2, r5, #0
  100a5e:	a801      	add	r0, sp, #4
  100a60:	2104      	movs	r1, #4
  100a62:	f7ff fe10 	bl	100686 <at45_push>
  100a66:	7027      	strb	r7, [r4, #0]
  100a68:	9a00      	ldr	r2, [sp, #0]
  100a6a:	0e13      	lsrs	r3, r2, #24
  100a6c:	7063      	strb	r3, [r4, #1]
  100a6e:	0a2b      	lsrs	r3, r5, #8
  100a70:	73a5      	strb	r5, [r4, #14]
  100a72:	73e3      	strb	r3, [r4, #15]
  100a74:	0c2b      	lsrs	r3, r5, #16
  100a76:	0e2d      	lsrs	r5, r5, #24
  100a78:	7423      	strb	r3, [r4, #16]
  100a7a:	7465      	strb	r5, [r4, #17]
  100a7c:	1c20      	adds	r0, r4, #0
  100a7e:	211a      	movs	r1, #26
  100a80:	9a01      	ldr	r2, [sp, #4]
  100a82:	f7ff fe00 	bl	100686 <at45_push>
  100a86:	1c20      	adds	r0, r4, #0
  100a88:	f001 f9d8 	bl	101e3c <free>
  100a8c:	9e01      	ldr	r6, [sp, #4]
  100a8e:	1c30      	adds	r0, r6, #0
  100a90:	bcf6      	pop	{r1, r2, r4, r5, r6, r7}
  100a92:	bc02      	pop	{r1}
  100a94:	4708      	bx	r1
  100a96:	46c0      	nop			; (mov r8, r8)
  100a98:	00109040 	andseq	r9, r0, r0, asr #32

00100a9c <fs_leaf_for_key>:
  100a9c:	b530      	push	{r4, r5, lr}
  100a9e:	040c      	lsls	r4, r1, #16
  100aa0:	1c05      	adds	r5, r0, #0
  100aa2:	0c24      	lsrs	r4, r4, #16
  100aa4:	2800      	cmp	r0, #0
  100aa6:	d101      	bne.n	100aac <fs_leaf_for_key+0x10>
  100aa8:	2500      	movs	r5, #0
  100aaa:	e023      	b.n	100af4 <fs_leaf_for_key+0x58>
  100aac:	211a      	movs	r1, #26
  100aae:	f7ff fe57 	bl	100760 <at45_dereference>
  100ab2:	7842      	ldrb	r2, [r0, #1]
  100ab4:	7801      	ldrb	r1, [r0, #0]
  100ab6:	0212      	lsls	r2, r2, #8
  100ab8:	1c03      	adds	r3, r0, #0
  100aba:	430a      	orrs	r2, r1
  100abc:	42a2      	cmp	r2, r4
  100abe:	d019      	beq.n	100af4 <fs_leaf_for_key+0x58>
  100ac0:	d208      	bcs.n	100ad4 <fs_leaf_for_key+0x38>
  100ac2:	7c82      	ldrb	r2, [r0, #18]
  100ac4:	7cc0      	ldrb	r0, [r0, #19]
  100ac6:	0200      	lsls	r0, r0, #8
  100ac8:	4310      	orrs	r0, r2
  100aca:	7d1a      	ldrb	r2, [r3, #20]
  100acc:	0412      	lsls	r2, r2, #16
  100ace:	4310      	orrs	r0, r2
  100ad0:	7d5b      	ldrb	r3, [r3, #21]
  100ad2:	e009      	b.n	100ae8 <fs_leaf_for_key+0x4c>
  100ad4:	42a2      	cmp	r2, r4
  100ad6:	d9e7      	bls.n	100aa8 <fs_leaf_for_key+0xc>
  100ad8:	7d82      	ldrb	r2, [r0, #22]
  100ada:	7dc0      	ldrb	r0, [r0, #23]
  100adc:	0200      	lsls	r0, r0, #8
  100ade:	4310      	orrs	r0, r2
  100ae0:	7e1a      	ldrb	r2, [r3, #24]
  100ae2:	7e5b      	ldrb	r3, [r3, #25]
  100ae4:	0412      	lsls	r2, r2, #16
  100ae6:	4310      	orrs	r0, r2
  100ae8:	061b      	lsls	r3, r3, #24
  100aea:	4318      	orrs	r0, r3
  100aec:	1c21      	adds	r1, r4, #0
  100aee:	f7ff ffd5 	bl	100a9c <fs_leaf_for_key>
  100af2:	1c05      	adds	r5, r0, #0
  100af4:	1c28      	adds	r0, r5, #0
  100af6:	bc30      	pop	{r4, r5}
  100af8:	bc02      	pop	{r1}
  100afa:	4708      	bx	r1

00100afc <fs_remove_leaf_with_key>:
  100afc:	0409      	lsls	r1, r1, #16
  100afe:	b5f1      	push	{r0, r4, r5, r6, r7, lr}
  100b00:	0c09      	lsrs	r1, r1, #16
  100b02:	f7ff ffcb 	bl	100a9c <fs_leaf_for_key>
  100b06:	1e05      	subs	r5, r0, #0
  100b08:	d100      	bne.n	100b0c <fs_remove_leaf_with_key+0x10>
  100b0a:	e0c3      	b.n	100c94 <fs_remove_leaf_with_key+0x198>
  100b0c:	211a      	movs	r1, #26
  100b0e:	1c28      	adds	r0, r5, #0
  100b10:	f7ff fe26 	bl	100760 <at45_dereference>
  100b14:	7cc6      	ldrb	r6, [r0, #19]
  100b16:	7c83      	ldrb	r3, [r0, #18]
  100b18:	0236      	lsls	r6, r6, #8
  100b1a:	431e      	orrs	r6, r3
  100b1c:	7d03      	ldrb	r3, [r0, #20]
  100b1e:	041b      	lsls	r3, r3, #16
  100b20:	431e      	orrs	r6, r3
  100b22:	7d43      	ldrb	r3, [r0, #21]
  100b24:	1c04      	adds	r4, r0, #0
  100b26:	061b      	lsls	r3, r3, #24
  100b28:	431e      	orrs	r6, r3
  100b2a:	7de3      	ldrb	r3, [r4, #23]
  100b2c:	7d80      	ldrb	r0, [r0, #22]
  100b2e:	021b      	lsls	r3, r3, #8
  100b30:	7e21      	ldrb	r1, [r4, #24]
  100b32:	7e62      	ldrb	r2, [r4, #25]
  100b34:	4318      	orrs	r0, r3
  100b36:	2e00      	cmp	r6, #0
  100b38:	d075      	beq.n	100c26 <fs_remove_leaf_with_key+0x12a>
  100b3a:	0409      	lsls	r1, r1, #16
  100b3c:	4308      	orrs	r0, r1
  100b3e:	7be1      	ldrb	r1, [r4, #15]
  100b40:	0612      	lsls	r2, r2, #24
  100b42:	7ba3      	ldrb	r3, [r4, #14]
  100b44:	4302      	orrs	r2, r0
  100b46:	0209      	lsls	r1, r1, #8
  100b48:	1c20      	adds	r0, r4, #0
  100b4a:	3012      	adds	r0, #18
  100b4c:	7c27      	ldrb	r7, [r4, #16]
  100b4e:	7c66      	ldrb	r6, [r4, #17]
  100b50:	430b      	orrs	r3, r1
  100b52:	2a00      	cmp	r2, #0
  100b54:	d055      	beq.n	100c02 <fs_remove_leaf_with_key+0x106>
  100b56:	043a      	lsls	r2, r7, #16
  100b58:	4313      	orrs	r3, r2
  100b5a:	0632      	lsls	r2, r6, #24
  100b5c:	431a      	orrs	r2, r3
  100b5e:	2104      	movs	r1, #4
  100b60:	f7ff fd91 	bl	100686 <at45_push>
  100b64:	7ce2      	ldrb	r2, [r4, #19]
  100b66:	7ca3      	ldrb	r3, [r4, #18]
  100b68:	0212      	lsls	r2, r2, #8
  100b6a:	431a      	orrs	r2, r3
  100b6c:	7d23      	ldrb	r3, [r4, #20]
  100b6e:	041b      	lsls	r3, r3, #16
  100b70:	431a      	orrs	r2, r3
  100b72:	7d63      	ldrb	r3, [r4, #21]
  100b74:	061b      	lsls	r3, r3, #24
  100b76:	431a      	orrs	r2, r3
  100b78:	1c20      	adds	r0, r4, #0
  100b7a:	320e      	adds	r2, #14
  100b7c:	300e      	adds	r0, #14
  100b7e:	2104      	movs	r1, #4
  100b80:	f7ff fd81 	bl	100686 <at45_push>
  100b84:	7de0      	ldrb	r0, [r4, #23]
  100b86:	7da3      	ldrb	r3, [r4, #22]
  100b88:	0200      	lsls	r0, r0, #8
  100b8a:	4318      	orrs	r0, r3
  100b8c:	7e23      	ldrb	r3, [r4, #24]
  100b8e:	041b      	lsls	r3, r3, #16
  100b90:	4318      	orrs	r0, r3
  100b92:	7e63      	ldrb	r3, [r4, #25]
  100b94:	061b      	lsls	r3, r3, #24
  100b96:	4318      	orrs	r0, r3
  100b98:	2102      	movs	r1, #2
  100b9a:	f7ff fde1 	bl	100760 <at45_dereference>
  100b9e:	1c06      	adds	r6, r0, #0
  100ba0:	7ce0      	ldrb	r0, [r4, #19]
  100ba2:	7ca3      	ldrb	r3, [r4, #18]
  100ba4:	0200      	lsls	r0, r0, #8
  100ba6:	4318      	orrs	r0, r3
  100ba8:	7d23      	ldrb	r3, [r4, #20]
  100baa:	041b      	lsls	r3, r3, #16
  100bac:	4318      	orrs	r0, r3
  100bae:	7d63      	ldrb	r3, [r4, #21]
  100bb0:	061b      	lsls	r3, r3, #24
  100bb2:	4318      	orrs	r0, r3
  100bb4:	2104      	movs	r1, #4
  100bb6:	3016      	adds	r0, #22
  100bb8:	f7ff fdd2 	bl	100760 <at45_dereference>
  100bbc:	1c03      	adds	r3, r0, #0
  100bbe:	7ce0      	ldrb	r0, [r4, #19]
  100bc0:	7ca2      	ldrb	r2, [r4, #18]
  100bc2:	0200      	lsls	r0, r0, #8
  100bc4:	4310      	orrs	r0, r2
  100bc6:	7d22      	ldrb	r2, [r4, #20]
  100bc8:	0412      	lsls	r2, r2, #16
  100bca:	4310      	orrs	r0, r2
  100bcc:	7d62      	ldrb	r2, [r4, #21]
  100bce:	0612      	lsls	r2, r2, #24
  100bd0:	4310      	orrs	r0, r2
  100bd2:	6819      	ldr	r1, [r3, #0]
  100bd4:	8832      	ldrh	r2, [r6, #0]
  100bd6:	3016      	adds	r0, #22
  100bd8:	f7ff feec 	bl	1009b4 <fs_empty_branch_for_key>
  100bdc:	1c02      	adds	r2, r0, #0
  100bde:	9000      	str	r0, [sp, #0]
  100be0:	1c20      	adds	r0, r4, #0
  100be2:	3016      	adds	r0, #22
  100be4:	2104      	movs	r1, #4
  100be6:	f7ff fd4e 	bl	100686 <at45_push>
  100bea:	7de2      	ldrb	r2, [r4, #23]
  100bec:	7da3      	ldrb	r3, [r4, #22]
  100bee:	0212      	lsls	r2, r2, #8
  100bf0:	431a      	orrs	r2, r3
  100bf2:	7e23      	ldrb	r3, [r4, #24]
  100bf4:	041b      	lsls	r3, r3, #16
  100bf6:	431a      	orrs	r2, r3
  100bf8:	7e63      	ldrb	r3, [r4, #25]
  100bfa:	061b      	lsls	r3, r3, #24
  100bfc:	431a      	orrs	r2, r3
  100bfe:	320e      	adds	r2, #14
  100c00:	e03e      	b.n	100c80 <fs_remove_leaf_with_key+0x184>
  100c02:	043a      	lsls	r2, r7, #16
  100c04:	4313      	orrs	r3, r2
  100c06:	0632      	lsls	r2, r6, #24
  100c08:	431a      	orrs	r2, r3
  100c0a:	2104      	movs	r1, #4
  100c0c:	f7ff fd3b 	bl	100686 <at45_push>
  100c10:	7ce2      	ldrb	r2, [r4, #19]
  100c12:	7ca3      	ldrb	r3, [r4, #18]
  100c14:	0212      	lsls	r2, r2, #8
  100c16:	431a      	orrs	r2, r3
  100c18:	7d23      	ldrb	r3, [r4, #20]
  100c1a:	1c20      	adds	r0, r4, #0
  100c1c:	041b      	lsls	r3, r3, #16
  100c1e:	431a      	orrs	r2, r3
  100c20:	300e      	adds	r0, #14
  100c22:	7d63      	ldrb	r3, [r4, #21]
  100c24:	e01d      	b.n	100c62 <fs_remove_leaf_with_key+0x166>
  100c26:	040b      	lsls	r3, r1, #16
  100c28:	4318      	orrs	r0, r3
  100c2a:	0613      	lsls	r3, r2, #24
  100c2c:	4303      	orrs	r3, r0
  100c2e:	d01c      	beq.n	100c6a <fs_remove_leaf_with_key+0x16e>
  100c30:	7be2      	ldrb	r2, [r4, #15]
  100c32:	7ba3      	ldrb	r3, [r4, #14]
  100c34:	0212      	lsls	r2, r2, #8
  100c36:	431a      	orrs	r2, r3
  100c38:	7c23      	ldrb	r3, [r4, #16]
  100c3a:	041b      	lsls	r3, r3, #16
  100c3c:	431a      	orrs	r2, r3
  100c3e:	7c63      	ldrb	r3, [r4, #17]
  100c40:	1c20      	adds	r0, r4, #0
  100c42:	061b      	lsls	r3, r3, #24
  100c44:	431a      	orrs	r2, r3
  100c46:	3016      	adds	r0, #22
  100c48:	2104      	movs	r1, #4
  100c4a:	f7ff fd1c 	bl	100686 <at45_push>
  100c4e:	7de2      	ldrb	r2, [r4, #23]
  100c50:	7da3      	ldrb	r3, [r4, #22]
  100c52:	0212      	lsls	r2, r2, #8
  100c54:	431a      	orrs	r2, r3
  100c56:	7e23      	ldrb	r3, [r4, #24]
  100c58:	041b      	lsls	r3, r3, #16
  100c5a:	1c20      	adds	r0, r4, #0
  100c5c:	431a      	orrs	r2, r3
  100c5e:	7e63      	ldrb	r3, [r4, #25]
  100c60:	300e      	adds	r0, #14
  100c62:	061b      	lsls	r3, r3, #24
  100c64:	431a      	orrs	r2, r3
  100c66:	320e      	adds	r2, #14
  100c68:	e00b      	b.n	100c82 <fs_remove_leaf_with_key+0x186>
  100c6a:	9300      	str	r3, [sp, #0]
  100c6c:	7be2      	ldrb	r2, [r4, #15]
  100c6e:	7ba3      	ldrb	r3, [r4, #14]
  100c70:	0212      	lsls	r2, r2, #8
  100c72:	431a      	orrs	r2, r3
  100c74:	7c23      	ldrb	r3, [r4, #16]
  100c76:	041b      	lsls	r3, r3, #16
  100c78:	431a      	orrs	r2, r3
  100c7a:	7c63      	ldrb	r3, [r4, #17]
  100c7c:	061b      	lsls	r3, r3, #24
  100c7e:	431a      	orrs	r2, r3
  100c80:	4668      	mov	r0, sp
  100c82:	2104      	movs	r1, #4
  100c84:	f7ff fcff 	bl	100686 <at45_push>
  100c88:	1c28      	adds	r0, r5, #0
  100c8a:	f7ff fb47 	bl	10031c <at45_free>
  100c8e:	1c20      	adds	r0, r4, #0
  100c90:	f001 f8d4 	bl	101e3c <free>
  100c94:	bcf1      	pop	{r0, r4, r5, r6, r7}
  100c96:	bc01      	pop	{r0}
  100c98:	4700      	bx	r0
  100c9a:	ffff b500 	vabal.u<illegal width 64>	<illegal reg q13.5>, d15, d0

00100c9c <fs_configure>:
  100c9c:	b500      	push	{lr}
  100c9e:	4808      	ldr	r0, [pc, #32]	; (100cc0 <fs_configure+0x24>)
  100ca0:	2104      	movs	r1, #4
  100ca2:	2220      	movs	r2, #32
  100ca4:	f7ff fd3b 	bl	10071e <at45_pull>
  100ca8:	4806      	ldr	r0, [pc, #24]	; (100cc4 <fs_configure+0x28>)
  100caa:	2104      	movs	r1, #4
  100cac:	2224      	movs	r2, #36	; 0x24
  100cae:	f7ff fd36 	bl	10071e <at45_pull>
  100cb2:	4805      	ldr	r0, [pc, #20]	; (100cc8 <fs_configure+0x2c>)
  100cb4:	2104      	movs	r1, #4
  100cb6:	2228      	movs	r2, #40	; 0x28
  100cb8:	f7ff fd31 	bl	10071e <at45_pull>
  100cbc:	bc01      	pop	{r0}
  100cbe:	4700      	bx	r0
  100cc0:	00200a8c 	eoreq	r0, r0, ip, lsl #21
  100cc4:	00200a90 	mlaeq	r0, r0, sl, r0
  100cc8:	00200a94 	mlaeq	r0, r4, sl, r0

00100ccc <fs_format>:
  100ccc:	4770      	bx	lr
  100cce:	ffff 4a01 	vtbl.8	d20, {d15-d17}, d1

00100cd0 <i2c_configure_clock>:
  100cd0:	4a01      	ldr	r2, [pc, #4]	; (100cd8 <i2c_configure_clock+0x8>)
  100cd2:	4b02      	ldr	r3, [pc, #8]	; (100cdc <i2c_configure_clock+0xc>)
  100cd4:	611a      	str	r2, [r3, #16]
  100cd6:	4770      	bx	lr
  100cd8:	0005dddd 	ldrdeq	sp, [r5], -sp	; <UNPREDICTABLE>
  100cdc:	fffb8000 			; <UNDEFINED> instruction: 0xfffb8000

00100ce0 <i2c_configure>:
  100ce0:	4b0b      	ldr	r3, [pc, #44]	; (100d10 <i2c_configure+0x30>)
  100ce2:	22e0      	movs	r2, #224	; 0xe0
  100ce4:	6f19      	ldr	r1, [r3, #112]	; 0x70
  100ce6:	01d2      	lsls	r2, r2, #7
  100ce8:	430a      	orrs	r2, r1
  100cea:	671a      	str	r2, [r3, #112]	; 0x70
  100cec:	685a      	ldr	r2, [r3, #4]
  100cee:	2118      	movs	r1, #24
  100cf0:	430a      	orrs	r2, r1
  100cf2:	605a      	str	r2, [r3, #4]
  100cf4:	4b07      	ldr	r3, [pc, #28]	; (100d14 <i2c_configure+0x34>)
  100cf6:	2280      	movs	r2, #128	; 0x80
  100cf8:	6919      	ldr	r1, [r3, #16]
  100cfa:	0092      	lsls	r2, r2, #2
  100cfc:	430a      	orrs	r2, r1
  100cfe:	611a      	str	r2, [r3, #16]
  100d00:	4b05      	ldr	r3, [pc, #20]	; (100d18 <i2c_configure+0x38>)
  100d02:	2280      	movs	r2, #128	; 0x80
  100d04:	601a      	str	r2, [r3, #0]
  100d06:	2204      	movs	r2, #4
  100d08:	601a      	str	r2, [r3, #0]
  100d0a:	4a04      	ldr	r2, [pc, #16]	; (100d1c <i2c_configure+0x3c>)
  100d0c:	611a      	str	r2, [r3, #16]
  100d0e:	4770      	bx	lr
  100d10:	fffff400 			; <UNDEFINED> instruction: 0xfffff400
  100d14:	fffffc00 			; <UNDEFINED> instruction: 0xfffffc00
  100d18:	fffb8000 			; <UNDEFINED> instruction: 0xfffb8000
  100d1c:	0005dddd 	ldrdeq	sp, [r5], -sp	; <UNPREDICTABLE>

00100d20 <i2c_put>:
  100d20:	b5f1      	push	{r0, r4, r5, r6, r7, lr}
  100d22:	25c0      	movs	r5, #192	; 0xc0
  100d24:	00ad      	lsls	r5, r5, #2
  100d26:	4c1b      	ldr	r4, [pc, #108]	; (100d94 <i2c_put+0x74>)
  100d28:	4228      	tst	r0, r5
  100d2a:	d000      	beq.n	100d2e <i2c_put+0xe>
  100d2c:	60e1      	str	r1, [r4, #12]
  100d2e:	491a      	ldr	r1, [pc, #104]	; (100d98 <i2c_put+0x78>)
  100d30:	4008      	ands	r0, r1
  100d32:	4e18      	ldr	r6, [pc, #96]	; (100d94 <i2c_put+0x74>)
  100d34:	6060      	str	r0, [r4, #4]
  100d36:	2b01      	cmp	r3, #1
  100d38:	dd04      	ble.n	100d44 <i2c_put+0x24>
  100d3a:	2000      	movs	r0, #0
  100d3c:	1e5d      	subs	r5, r3, #1
  100d3e:	1c01      	adds	r1, r0, #0
  100d40:	9500      	str	r5, [sp, #0]
  100d42:	e019      	b.n	100d78 <i2c_put+0x58>
  100d44:	2307      	movs	r3, #7
  100d46:	6033      	str	r3, [r6, #0]
  100d48:	7813      	ldrb	r3, [r2, #0]
  100d4a:	2000      	movs	r0, #0
  100d4c:	6373      	str	r3, [r6, #52]	; 0x34
  100d4e:	e015      	b.n	100d7c <i2c_put+0x5c>
  100d50:	9d00      	ldr	r5, [sp, #0]
  100d52:	2705      	movs	r7, #5
  100d54:	6027      	str	r7, [r4, #0]
  100d56:	42a9      	cmp	r1, r5
  100d58:	d101      	bne.n	100d5e <i2c_put+0x3e>
  100d5a:	2702      	movs	r7, #2
  100d5c:	6037      	str	r7, [r6, #0]
  100d5e:	2704      	movs	r7, #4
  100d60:	6a25      	ldr	r5, [r4, #32]
  100d62:	3001      	adds	r0, #1
  100d64:	46bc      	mov	ip, r7
  100d66:	e001      	b.n	100d6c <i2c_put+0x4c>
  100d68:	6a25      	ldr	r5, [r4, #32]
  100d6a:	3001      	adds	r0, #1
  100d6c:	4667      	mov	r7, ip
  100d6e:	423d      	tst	r5, r7
  100d70:	d0fa      	beq.n	100d68 <i2c_put+0x48>
  100d72:	5c55      	ldrb	r5, [r2, r1]
  100d74:	6365      	str	r5, [r4, #52]	; 0x34
  100d76:	3101      	adds	r1, #1
  100d78:	4299      	cmp	r1, r3
  100d7a:	d1e9      	bne.n	100d50 <i2c_put+0x30>
  100d7c:	6a23      	ldr	r3, [r4, #32]
  100d7e:	3001      	adds	r0, #1
  100d80:	2201      	movs	r2, #1
  100d82:	e001      	b.n	100d88 <i2c_put+0x68>
  100d84:	6a23      	ldr	r3, [r4, #32]
  100d86:	3001      	adds	r0, #1
  100d88:	4213      	tst	r3, r2
  100d8a:	d0fb      	beq.n	100d84 <i2c_put+0x64>
  100d8c:	bcf2      	pop	{r1, r4, r5, r6, r7}
  100d8e:	bc02      	pop	{r1}
  100d90:	4708      	bx	r1
  100d92:	46c0      	nop			; (mov r8, r8)
  100d94:	fffb8000 			; <UNDEFINED> instruction: 0xfffb8000
  100d98:	ffffefff 			; <UNDEFINED> instruction: 0xffffefff

00100d9c <i2c_get>:
  100d9c:	b5f1      	push	{r0, r4, r5, r6, r7, lr}
  100d9e:	25c0      	movs	r5, #192	; 0xc0
  100da0:	00ad      	lsls	r5, r5, #2
  100da2:	4c17      	ldr	r4, [pc, #92]	; (100e00 <i2c_get+0x64>)
  100da4:	4228      	tst	r0, r5
  100da6:	d000      	beq.n	100daa <i2c_get+0xe>
  100da8:	60e1      	str	r1, [r4, #12]
  100daa:	2180      	movs	r1, #128	; 0x80
  100dac:	0149      	lsls	r1, r1, #5
  100dae:	4308      	orrs	r0, r1
  100db0:	6060      	str	r0, [r4, #4]
  100db2:	4913      	ldr	r1, [pc, #76]	; (100e00 <i2c_get+0x64>)
  100db4:	2b01      	cmp	r3, #1
  100db6:	d109      	bne.n	100dcc <i2c_get+0x30>
  100db8:	2003      	movs	r0, #3
  100dba:	6008      	str	r0, [r1, #0]
  100dbc:	6a09      	ldr	r1, [r1, #32]
  100dbe:	e000      	b.n	100dc2 <i2c_get+0x26>
  100dc0:	6a21      	ldr	r1, [r4, #32]
  100dc2:	4219      	tst	r1, r3
  100dc4:	d0fc      	beq.n	100dc0 <i2c_get+0x24>
  100dc6:	6b23      	ldr	r3, [r4, #48]	; 0x30
  100dc8:	7013      	strb	r3, [r2, #0]
  100dca:	e014      	b.n	100df6 <i2c_get+0x5a>
  100dcc:	2005      	movs	r0, #5
  100dce:	6008      	str	r0, [r1, #0]
  100dd0:	3b01      	subs	r3, #1
  100dd2:	6a0d      	ldr	r5, [r1, #32]
  100dd4:	2000      	movs	r0, #0
  100dd6:	2701      	movs	r7, #1
  100dd8:	2602      	movs	r6, #2
  100dda:	9300      	str	r3, [sp, #0]
  100ddc:	e009      	b.n	100df2 <i2c_get+0x56>
  100dde:	6a25      	ldr	r5, [r4, #32]
  100de0:	4235      	tst	r5, r6
  100de2:	d006      	beq.n	100df2 <i2c_get+0x56>
  100de4:	6b0b      	ldr	r3, [r1, #48]	; 0x30
  100de6:	5413      	strb	r3, [r2, r0]
  100de8:	9b00      	ldr	r3, [sp, #0]
  100dea:	3001      	adds	r0, #1
  100dec:	4298      	cmp	r0, r3
  100dee:	d100      	bne.n	100df2 <i2c_get+0x56>
  100df0:	600e      	str	r6, [r1, #0]
  100df2:	423d      	tst	r5, r7
  100df4:	d0f3      	beq.n	100dde <i2c_get+0x42>
  100df6:	2000      	movs	r0, #0
  100df8:	bcf2      	pop	{r1, r4, r5, r6, r7}
  100dfa:	bc02      	pop	{r1}
  100dfc:	4708      	bx	r1
  100dfe:	46c0      	nop			; (mov r8, r8)
  100e00:	fffb8000 			; <UNDEFINED> instruction: 0xfffb8000

00100e04 <analog_set_direction>:
  100e04:	4770      	bx	lr

00100e06 <analog_write>:
  100e06:	4770      	bx	lr

00100e08 <analog_read>:
  100e08:	2000      	movs	r0, #0
  100e0a:	4770      	bx	lr

00100e0c <digital_set_direction>:
  100e0c:	4b0f      	ldr	r3, [pc, #60]	; (100e4c <digital_set_direction+0x40>)
  100e0e:	0600      	lsls	r0, r0, #24
  100e10:	b510      	push	{r4, lr}
  100e12:	0e00      	lsrs	r0, r0, #24
  100e14:	681a      	ldr	r2, [r3, #0]
  100e16:	2401      	movs	r4, #1
  100e18:	4084      	lsls	r4, r0
  100e1a:	0609      	lsls	r1, r1, #24
  100e1c:	4322      	orrs	r2, r4
  100e1e:	0e09      	lsrs	r1, r1, #24
  100e20:	1c20      	adds	r0, r4, #0
  100e22:	601a      	str	r2, [r3, #0]
  100e24:	2900      	cmp	r1, #0
  100e26:	d008      	beq.n	100e3a <digital_set_direction+0x2e>
  100e28:	2901      	cmp	r1, #1
  100e2a:	d10c      	bne.n	100e46 <digital_set_direction+0x3a>
  100e2c:	695a      	ldr	r2, [r3, #20]
  100e2e:	43a2      	bics	r2, r4
  100e30:	615a      	str	r2, [r3, #20]
  100e32:	691a      	ldr	r2, [r3, #16]
  100e34:	4310      	orrs	r0, r2
  100e36:	6118      	str	r0, [r3, #16]
  100e38:	e005      	b.n	100e46 <digital_set_direction+0x3a>
  100e3a:	691a      	ldr	r2, [r3, #16]
  100e3c:	43a2      	bics	r2, r4
  100e3e:	611a      	str	r2, [r3, #16]
  100e40:	695a      	ldr	r2, [r3, #20]
  100e42:	4310      	orrs	r0, r2
  100e44:	6158      	str	r0, [r3, #20]
  100e46:	bc10      	pop	{r4}
  100e48:	bc01      	pop	{r0}
  100e4a:	4700      	bx	r0
  100e4c:	fffff400 			; <UNDEFINED> instruction: 0xfffff400

00100e50 <digital_write>:
  100e50:	0600      	lsls	r0, r0, #24
  100e52:	0409      	lsls	r1, r1, #16
  100e54:	0e00      	lsrs	r0, r0, #24
  100e56:	0c09      	lsrs	r1, r1, #16
  100e58:	d00a      	beq.n	100e70 <digital_write+0x20>
  100e5a:	2901      	cmp	r1, #1
  100e5c:	d112      	bne.n	100e84 <digital_write+0x34>
  100e5e:	4b0a      	ldr	r3, [pc, #40]	; (100e88 <digital_write+0x38>)
  100e60:	6b5a      	ldr	r2, [r3, #52]	; 0x34
  100e62:	4081      	lsls	r1, r0
  100e64:	438a      	bics	r2, r1
  100e66:	635a      	str	r2, [r3, #52]	; 0x34
  100e68:	6b18      	ldr	r0, [r3, #48]	; 0x30
  100e6a:	4301      	orrs	r1, r0
  100e6c:	6319      	str	r1, [r3, #48]	; 0x30
  100e6e:	e009      	b.n	100e84 <digital_write+0x34>
  100e70:	4b05      	ldr	r3, [pc, #20]	; (100e88 <digital_write+0x38>)
  100e72:	2101      	movs	r1, #1
  100e74:	6b1a      	ldr	r2, [r3, #48]	; 0x30
  100e76:	4081      	lsls	r1, r0
  100e78:	438a      	bics	r2, r1
  100e7a:	631a      	str	r2, [r3, #48]	; 0x30
  100e7c:	1c08      	adds	r0, r1, #0
  100e7e:	6b59      	ldr	r1, [r3, #52]	; 0x34
  100e80:	4308      	orrs	r0, r1
  100e82:	6358      	str	r0, [r3, #52]	; 0x34
  100e84:	4770      	bx	lr
  100e86:	46c0      	nop			; (mov r8, r8)
  100e88:	fffff400 			; <UNDEFINED> instruction: 0xfffff400

00100e8c <digital_read>:
  100e8c:	4a04      	ldr	r2, [pc, #16]	; (100ea0 <digital_read+0x14>)
  100e8e:	0603      	lsls	r3, r0, #24
  100e90:	0e1b      	lsrs	r3, r3, #24
  100e92:	6bd0      	ldr	r0, [r2, #60]	; 0x3c
  100e94:	2201      	movs	r2, #1
  100e96:	409a      	lsls	r2, r3
  100e98:	4010      	ands	r0, r2
  100e9a:	1e43      	subs	r3, r0, #1
  100e9c:	4198      	sbcs	r0, r3
  100e9e:	4770      	bx	lr
  100ea0:	fffff400 			; <UNDEFINED> instruction: 0xfffff400

00100ea4 <digital_pulse>:
  100ea4:	4770      	bx	lr
  100ea6:	ffff 4b02 	vtbl.8	d20, {d15-d18}, d2

00100ea8 <io_configure>:
  100ea8:	4b02      	ldr	r3, [pc, #8]	; (100eb4 <io_configure+0xc>)
  100eaa:	691a      	ldr	r2, [r3, #16]
  100eac:	2104      	movs	r1, #4
  100eae:	430a      	orrs	r2, r1
  100eb0:	611a      	str	r2, [r3, #16]
  100eb2:	4770      	bx	lr
  100eb4:	fffffc00 			; <UNDEFINED> instruction: 0xfffffc00

00100eb8 <io_set_direction>:
  100eb8:	0600      	lsls	r0, r0, #24
  100eba:	0609      	lsls	r1, r1, #24
  100ebc:	b500      	push	{lr}
  100ebe:	0e00      	lsrs	r0, r0, #24
  100ec0:	0e09      	lsrs	r1, r1, #24
  100ec2:	2810      	cmp	r0, #16
  100ec4:	d802      	bhi.n	100ecc <io_set_direction+0x14>
  100ec6:	f7ff ffa1 	bl	100e0c <digital_set_direction>
  100eca:	e001      	b.n	100ed0 <io_set_direction+0x18>
  100ecc:	f7ff ff9a 	bl	100e04 <analog_set_direction>
  100ed0:	bc01      	pop	{r0}
  100ed2:	4700      	bx	r0

00100ed4 <io_write>:
  100ed4:	0600      	lsls	r0, r0, #24
  100ed6:	0409      	lsls	r1, r1, #16
  100ed8:	b500      	push	{lr}
  100eda:	0e00      	lsrs	r0, r0, #24
  100edc:	0c09      	lsrs	r1, r1, #16
  100ede:	2810      	cmp	r0, #16
  100ee0:	d802      	bhi.n	100ee8 <io_write+0x14>
  100ee2:	f7ff ffb5 	bl	100e50 <digital_write>
  100ee6:	e001      	b.n	100eec <io_write+0x18>
  100ee8:	f7ff ff8d 	bl	100e06 <analog_write>
  100eec:	bc01      	pop	{r0}
  100eee:	4700      	bx	r0

00100ef0 <io_read>:
  100ef0:	0600      	lsls	r0, r0, #24
  100ef2:	b500      	push	{lr}
  100ef4:	0e00      	lsrs	r0, r0, #24
  100ef6:	2810      	cmp	r0, #16
  100ef8:	d802      	bhi.n	100f00 <io_read+0x10>
  100efa:	f7ff ffc7 	bl	100e8c <digital_read>
  100efe:	e001      	b.n	100f04 <io_read+0x14>
  100f00:	f7ff ff82 	bl	100e08 <analog_read>
  100f04:	bc02      	pop	{r1}
  100f06:	4708      	bx	r1

00100f08 <led_configure>:
  100f08:	4770      	bx	lr

00100f0a <led_set_rgb>:
  100f0a:	4770      	bx	lr

00100f0c <pwm_configure>:
  100f0c:	4770      	bx	lr

00100f0e <rtc_configure>:
  100f0e:	4770      	bx	lr

00100f10 <spi_configure>:
  100f10:	4b0f      	ldr	r3, [pc, #60]	; (100f50 <spi_configure+0x40>)
  100f12:	691a      	ldr	r2, [r3, #16]
  100f14:	2120      	movs	r1, #32
  100f16:	430a      	orrs	r2, r1
  100f18:	611a      	str	r2, [r3, #16]
  100f1a:	4b0e      	ldr	r3, [pc, #56]	; (100f54 <spi_configure+0x44>)
  100f1c:	22e0      	movs	r2, #224	; 0xe0
  100f1e:	6f19      	ldr	r1, [r3, #112]	; 0x70
  100f20:	01d2      	lsls	r2, r2, #7
  100f22:	430a      	orrs	r2, r1
  100f24:	671a      	str	r2, [r3, #112]	; 0x70
  100f26:	4b0c      	ldr	r3, [pc, #48]	; (100f58 <spi_configure+0x48>)
  100f28:	685a      	ldr	r2, [r3, #4]
  100f2a:	2101      	movs	r1, #1
  100f2c:	430a      	orrs	r2, r1
  100f2e:	605a      	str	r2, [r3, #4]
  100f30:	681a      	ldr	r2, [r3, #0]
  100f32:	2102      	movs	r1, #2
  100f34:	430a      	orrs	r2, r1
  100f36:	601a      	str	r2, [r3, #0]
  100f38:	4908      	ldr	r1, [pc, #32]	; (100f5c <spi_configure+0x4c>)
  100f3a:	1c1a      	adds	r2, r3, #0
  100f3c:	32fc      	adds	r2, #252	; 0xfc
  100f3e:	6251      	str	r1, [r2, #36]	; 0x24
  100f40:	4907      	ldr	r1, [pc, #28]	; (100f60 <spi_configure+0x50>)
  100f42:	685a      	ldr	r2, [r3, #4]
  100f44:	430a      	orrs	r2, r1
  100f46:	605a      	str	r2, [r3, #4]
  100f48:	4a06      	ldr	r2, [pc, #24]	; (100f64 <spi_configure+0x54>)
  100f4a:	4b07      	ldr	r3, [pc, #28]	; (100f68 <spi_configure+0x58>)
  100f4c:	601a      	str	r2, [r3, #0]
  100f4e:	4770      	bx	lr
  100f50:	fffffc00 			; <UNDEFINED> instruction: 0xfffffc00
  100f54:	fffff400 			; <UNDEFINED> instruction: 0xfffff400
  100f58:	fffe0000 			; <UNDEFINED> instruction: 0xfffe0000
  100f5c:	00000202 	andeq	r0, r0, r2, lsl #4
  100f60:	00010010 	andeq	r0, r1, r0, lsl r0
  100f64:	01008009 	tsteq	r0, r9
  100f68:	fffe0034 			; <UNDEFINED> instruction: 0xfffe0034

00100f6c <spi_enable>:
  100f6c:	4b0c      	ldr	r3, [pc, #48]	; (100fa0 <spi_enable+0x34>)
  100f6e:	4a0d      	ldr	r2, [pc, #52]	; (100fa4 <spi_enable+0x38>)
  100f70:	6819      	ldr	r1, [r3, #0]
  100f72:	400a      	ands	r2, r1
  100f74:	601a      	str	r2, [r3, #0]
  100f76:	22e0      	movs	r2, #224	; 0xe0
  100f78:	6859      	ldr	r1, [r3, #4]
  100f7a:	01d2      	lsls	r2, r2, #7
  100f7c:	430a      	orrs	r2, r1
  100f7e:	605a      	str	r2, [r3, #4]
  100f80:	4b09      	ldr	r3, [pc, #36]	; (100fa8 <spi_enable+0x3c>)
  100f82:	681a      	ldr	r2, [r3, #0]
  100f84:	2102      	movs	r1, #2
  100f86:	438a      	bics	r2, r1
  100f88:	601a      	str	r2, [r3, #0]
  100f8a:	681a      	ldr	r2, [r3, #0]
  100f8c:	2101      	movs	r1, #1
  100f8e:	430a      	orrs	r2, r1
  100f90:	601a      	str	r2, [r3, #0]
  100f92:	2280      	movs	r2, #128	; 0x80
  100f94:	0252      	lsls	r2, r2, #9
  100f96:	6919      	ldr	r1, [r3, #16]
  100f98:	4211      	tst	r1, r2
  100f9a:	d0fc      	beq.n	100f96 <spi_enable+0x2a>
  100f9c:	4770      	bx	lr
  100f9e:	46c0      	nop			; (mov r8, r8)
  100fa0:	fffff400 			; <UNDEFINED> instruction: 0xfffff400
  100fa4:	ffff8fff 			; <UNDEFINED> instruction: 0xffff8fff
  100fa8:	fffe0000 			; <UNDEFINED> instruction: 0xfffe0000

00100fac <spi_disable>:
  100fac:	2280      	movs	r2, #128	; 0x80
  100fae:	480c      	ldr	r0, [pc, #48]	; (100fe0 <spi_disable+0x34>)
  100fb0:	0092      	lsls	r2, r2, #2
  100fb2:	6901      	ldr	r1, [r0, #16]
  100fb4:	4b0a      	ldr	r3, [pc, #40]	; (100fe0 <spi_disable+0x34>)
  100fb6:	4211      	tst	r1, r2
  100fb8:	d0fb      	beq.n	100fb2 <spi_disable+0x6>
  100fba:	681a      	ldr	r2, [r3, #0]
  100fbc:	2101      	movs	r1, #1
  100fbe:	438a      	bics	r2, r1
  100fc0:	601a      	str	r2, [r3, #0]
  100fc2:	681a      	ldr	r2, [r3, #0]
  100fc4:	2102      	movs	r1, #2
  100fc6:	430a      	orrs	r2, r1
  100fc8:	601a      	str	r2, [r3, #0]
  100fca:	4b06      	ldr	r3, [pc, #24]	; (100fe4 <spi_disable+0x38>)
  100fcc:	4a06      	ldr	r2, [pc, #24]	; (100fe8 <spi_disable+0x3c>)
  100fce:	6859      	ldr	r1, [r3, #4]
  100fd0:	400a      	ands	r2, r1
  100fd2:	605a      	str	r2, [r3, #4]
  100fd4:	22e0      	movs	r2, #224	; 0xe0
  100fd6:	6819      	ldr	r1, [r3, #0]
  100fd8:	01d2      	lsls	r2, r2, #7
  100fda:	430a      	orrs	r2, r1
  100fdc:	601a      	str	r2, [r3, #0]
  100fde:	4770      	bx	lr
  100fe0:	fffe0000 			; <UNDEFINED> instruction: 0xfffe0000
  100fe4:	fffff400 			; <UNDEFINED> instruction: 0xfffff400
  100fe8:	ffff8fff 			; <UNDEFINED> instruction: 0xffff8fff

00100fec <spi_ready>:
  100fec:	4b02      	ldr	r3, [pc, #8]	; (100ff8 <spi_ready+0xc>)
  100fee:	6918      	ldr	r0, [r3, #16]
  100ff0:	2301      	movs	r3, #1
  100ff2:	4018      	ands	r0, r3
  100ff4:	4770      	bx	lr
  100ff6:	46c0      	nop			; (mov r8, r8)
  100ff8:	fffe0000 			; <UNDEFINED> instruction: 0xfffe0000

00100ffc <spi_put_get>:
  100ffc:	b510      	push	{r4, lr}
  100ffe:	0600      	lsls	r0, r0, #24
  101000:	4c09      	ldr	r4, [pc, #36]	; (101028 <spi_put_get+0x2c>)
  101002:	0e00      	lsrs	r0, r0, #24
  101004:	2202      	movs	r2, #2
  101006:	6921      	ldr	r1, [r4, #16]
  101008:	4b07      	ldr	r3, [pc, #28]	; (101028 <spi_put_get+0x2c>)
  10100a:	4211      	tst	r1, r2
  10100c:	d0fb      	beq.n	101006 <spi_put_get+0xa>
  10100e:	60d8      	str	r0, [r3, #12]
  101010:	2201      	movs	r2, #1
  101012:	6919      	ldr	r1, [r3, #16]
  101014:	4211      	tst	r1, r2
  101016:	d0fc      	beq.n	101012 <spi_put_get+0x16>
  101018:	4b03      	ldr	r3, [pc, #12]	; (101028 <spi_put_get+0x2c>)
  10101a:	6898      	ldr	r0, [r3, #8]
  10101c:	0600      	lsls	r0, r0, #24
  10101e:	0e00      	lsrs	r0, r0, #24
  101020:	bc10      	pop	{r4}
  101022:	bc02      	pop	{r1}
  101024:	4708      	bx	r1
  101026:	46c0      	nop			; (mov r8, r8)
  101028:	fffe0000 			; <UNDEFINED> instruction: 0xfffe0000

0010102c <spi_put>:
  10102c:	b500      	push	{lr}
  10102e:	0600      	lsls	r0, r0, #24
  101030:	0e00      	lsrs	r0, r0, #24
  101032:	f7ff ffe3 	bl	100ffc <spi_put_get>
  101036:	bc01      	pop	{r0}
  101038:	4700      	bx	r0

0010103a <spi_get>:
  10103a:	b500      	push	{lr}
  10103c:	2000      	movs	r0, #0
  10103e:	f7ff ffdd 	bl	100ffc <spi_put_get>
  101042:	bc02      	pop	{r1}
  101044:	4708      	bx	r1

00101046 <spi_push>:
  101046:	b530      	push	{r4, r5, lr}
  101048:	1c04      	adds	r4, r0, #0
  10104a:	1845      	adds	r5, r0, r1
  10104c:	e003      	b.n	101056 <spi_push+0x10>
  10104e:	7820      	ldrb	r0, [r4, #0]
  101050:	3401      	adds	r4, #1
  101052:	f7ff ffd3 	bl	100ffc <spi_put_get>
  101056:	42ac      	cmp	r4, r5
  101058:	d1f9      	bne.n	10104e <spi_push+0x8>
  10105a:	bc30      	pop	{r4, r5}
  10105c:	bc01      	pop	{r0}
  10105e:	4700      	bx	r0

00101060 <spi_pull>:
  101060:	b530      	push	{r4, r5, lr}
  101062:	1c04      	adds	r4, r0, #0
  101064:	1845      	adds	r5, r0, r1
  101066:	e003      	b.n	101070 <spi_pull+0x10>
  101068:	f7ff ffe7 	bl	10103a <spi_get>
  10106c:	7020      	strb	r0, [r4, #0]
  10106e:	3401      	adds	r4, #1
  101070:	42ac      	cmp	r4, r5
  101072:	d1f9      	bne.n	101068 <spi_pull+0x8>
  101074:	bc30      	pop	{r4, r5}
  101076:	bc01      	pop	{r0}
  101078:	4700      	bx	r0

0010107a <temp_configure>:
  10107a:	4770      	bx	lr

0010107c <timer_configure>:
  10107c:	4770      	bx	lr

0010107e <usart_configure>:
  10107e:	6803      	ldr	r3, [r0, #0]
  101080:	22ac      	movs	r2, #172	; 0xac
  101082:	4313      	orrs	r3, r2
  101084:	6003      	str	r3, [r0, #0]
  101086:	238c      	movs	r3, #140	; 0x8c
  101088:	6842      	ldr	r2, [r0, #4]
  10108a:	0409      	lsls	r1, r1, #16
  10108c:	011b      	lsls	r3, r3, #4
  10108e:	4313      	orrs	r3, r2
  101090:	0c09      	lsrs	r1, r1, #16
  101092:	6043      	str	r3, [r0, #4]
  101094:	6201      	str	r1, [r0, #32]
  101096:	6803      	ldr	r3, [r0, #0]
  101098:	2250      	movs	r2, #80	; 0x50
  10109a:	4313      	orrs	r3, r2
  10109c:	6003      	str	r3, [r0, #0]
  10109e:	4770      	bx	lr

001010a0 <usart_enable>:
  1010a0:	6803      	ldr	r3, [r0, #0]
  1010a2:	2250      	movs	r2, #80	; 0x50
  1010a4:	4313      	orrs	r3, r2
  1010a6:	6003      	str	r3, [r0, #0]
  1010a8:	4770      	bx	lr

001010aa <usart_disable>:
  1010aa:	6803      	ldr	r3, [r0, #0]
  1010ac:	22a0      	movs	r2, #160	; 0xa0
  1010ae:	4313      	orrs	r3, r2
  1010b0:	6003      	str	r3, [r0, #0]
  1010b2:	4770      	bx	lr

001010b4 <usart_ready>:
  1010b4:	6940      	ldr	r0, [r0, #20]
  1010b6:	2301      	movs	r3, #1
  1010b8:	4018      	ands	r0, r3
  1010ba:	4770      	bx	lr

001010bc <usart_put_byte>:
  1010bc:	0609      	lsls	r1, r1, #24
  1010be:	0e09      	lsrs	r1, r1, #24
  1010c0:	2302      	movs	r3, #2
  1010c2:	6942      	ldr	r2, [r0, #20]
  1010c4:	421a      	tst	r2, r3
  1010c6:	d0fc      	beq.n	1010c2 <usart_put_byte+0x6>
  1010c8:	61c1      	str	r1, [r0, #28]
  1010ca:	4770      	bx	lr

001010cc <usart_get_byte>:
  1010cc:	2301      	movs	r3, #1
  1010ce:	6942      	ldr	r2, [r0, #20]
  1010d0:	421a      	tst	r2, r3
  1010d2:	d0fc      	beq.n	1010ce <usart_get_byte+0x2>
  1010d4:	6980      	ldr	r0, [r0, #24]
  1010d6:	0600      	lsls	r0, r0, #24
  1010d8:	0e00      	lsrs	r0, r0, #24
  1010da:	4770      	bx	lr

001010dc <usart_push>:
  1010dc:	b570      	push	{r4, r5, r6, lr}
  1010de:	1c06      	adds	r6, r0, #0
  1010e0:	1c0c      	adds	r4, r1, #0
  1010e2:	188d      	adds	r5, r1, r2
  1010e4:	e004      	b.n	1010f0 <usart_push+0x14>
  1010e6:	7821      	ldrb	r1, [r4, #0]
  1010e8:	1c30      	adds	r0, r6, #0
  1010ea:	3401      	adds	r4, #1
  1010ec:	f7ff ffe6 	bl	1010bc <usart_put_byte>
  1010f0:	42ac      	cmp	r4, r5
  1010f2:	d1f8      	bne.n	1010e6 <usart_push+0xa>
  1010f4:	bc70      	pop	{r4, r5, r6}
  1010f6:	bc01      	pop	{r0}
  1010f8:	4700      	bx	r0

001010fa <usart_pull>:
  1010fa:	b570      	push	{r4, r5, r6, lr}
  1010fc:	1c06      	adds	r6, r0, #0
  1010fe:	1c0c      	adds	r4, r1, #0
  101100:	188d      	adds	r5, r1, r2
  101102:	e004      	b.n	10110e <usart_pull+0x14>
  101104:	1c30      	adds	r0, r6, #0
  101106:	f7ff ffe1 	bl	1010cc <usart_get_byte>
  10110a:	7020      	strb	r0, [r4, #0]
  10110c:	3401      	adds	r4, #1
  10110e:	42ac      	cmp	r4, r5
  101110:	d1f8      	bne.n	101104 <usart_pull+0xa>
  101112:	bc70      	pop	{r4, r5, r6}
  101114:	bc01      	pop	{r0}
  101116:	4700      	bx	r0

00101118 <usart0_configure>:
  101118:	4b08      	ldr	r3, [pc, #32]	; (10113c <usart0_configure+0x24>)
  10111a:	691a      	ldr	r2, [r3, #16]
  10111c:	2140      	movs	r1, #64	; 0x40
  10111e:	430a      	orrs	r2, r1
  101120:	b500      	push	{lr}
  101122:	611a      	str	r2, [r3, #16]
  101124:	4b06      	ldr	r3, [pc, #24]	; (101140 <usart0_configure+0x28>)
  101126:	685a      	ldr	r2, [r3, #4]
  101128:	2160      	movs	r1, #96	; 0x60
  10112a:	430a      	orrs	r2, r1
  10112c:	0401      	lsls	r1, r0, #16
  10112e:	605a      	str	r2, [r3, #4]
  101130:	0c09      	lsrs	r1, r1, #16
  101132:	4804      	ldr	r0, [pc, #16]	; (101144 <usart0_configure+0x2c>)
  101134:	f7ff ffa3 	bl	10107e <usart_configure>
  101138:	bc01      	pop	{r0}
  10113a:	4700      	bx	r0
  10113c:	fffffc00 			; <UNDEFINED> instruction: 0xfffffc00
  101140:	fffff400 			; <UNDEFINED> instruction: 0xfffff400
  101144:	fffc0000 			; <UNDEFINED> instruction: 0xfffc0000

00101148 <usart0_enable>:
  101148:	4b02      	ldr	r3, [pc, #8]	; (101154 <usart0_enable+0xc>)
  10114a:	681a      	ldr	r2, [r3, #0]
  10114c:	2150      	movs	r1, #80	; 0x50
  10114e:	430a      	orrs	r2, r1
  101150:	601a      	str	r2, [r3, #0]
  101152:	4770      	bx	lr
  101154:	fffc0000 			; <UNDEFINED> instruction: 0xfffc0000

00101158 <usart0_disable>:
  101158:	4b02      	ldr	r3, [pc, #8]	; (101164 <usart0_disable+0xc>)
  10115a:	681a      	ldr	r2, [r3, #0]
  10115c:	21a0      	movs	r1, #160	; 0xa0
  10115e:	430a      	orrs	r2, r1
  101160:	601a      	str	r2, [r3, #0]
  101162:	4770      	bx	lr
  101164:	fffc0000 			; <UNDEFINED> instruction: 0xfffc0000

00101168 <usart0_ready>:
  101168:	4b02      	ldr	r3, [pc, #8]	; (101174 <usart0_ready+0xc>)
  10116a:	6958      	ldr	r0, [r3, #20]
  10116c:	2301      	movs	r3, #1
  10116e:	4018      	ands	r0, r3
  101170:	4770      	bx	lr
  101172:	46c0      	nop			; (mov r8, r8)
  101174:	fffc0000 			; <UNDEFINED> instruction: 0xfffc0000

00101178 <usart0_put>:
  101178:	b500      	push	{lr}
  10117a:	0601      	lsls	r1, r0, #24
  10117c:	0e09      	lsrs	r1, r1, #24
  10117e:	4802      	ldr	r0, [pc, #8]	; (101188 <usart0_put+0x10>)
  101180:	f7ff ff9c 	bl	1010bc <usart_put_byte>
  101184:	bc01      	pop	{r0}
  101186:	4700      	bx	r0
  101188:	fffc0000 			; <UNDEFINED> instruction: 0xfffc0000

0010118c <usart0_get>:
  10118c:	b500      	push	{lr}
  10118e:	4802      	ldr	r0, [pc, #8]	; (101198 <usart0_get+0xc>)
  101190:	f7ff ff9c 	bl	1010cc <usart_get_byte>
  101194:	bc02      	pop	{r1}
  101196:	4708      	bx	r1
  101198:	fffc0000 			; <UNDEFINED> instruction: 0xfffc0000

0010119c <usart0_push>:
  10119c:	b500      	push	{lr}
  10119e:	1c03      	adds	r3, r0, #0
  1011a0:	1c0a      	adds	r2, r1, #0
  1011a2:	4803      	ldr	r0, [pc, #12]	; (1011b0 <usart0_push+0x14>)
  1011a4:	1c19      	adds	r1, r3, #0
  1011a6:	f7ff ff99 	bl	1010dc <usart_push>
  1011aa:	bc01      	pop	{r0}
  1011ac:	4700      	bx	r0
  1011ae:	46c0      	nop			; (mov r8, r8)
  1011b0:	fffc0000 			; <UNDEFINED> instruction: 0xfffc0000

001011b4 <usart0_pull>:
  1011b4:	b500      	push	{lr}
  1011b6:	1c03      	adds	r3, r0, #0
  1011b8:	1c0a      	adds	r2, r1, #0
  1011ba:	4803      	ldr	r0, [pc, #12]	; (1011c8 <usart0_pull+0x14>)
  1011bc:	1c19      	adds	r1, r3, #0
  1011be:	f7ff ff9c 	bl	1010fa <usart_pull>
  1011c2:	bc01      	pop	{r0}
  1011c4:	4700      	bx	r0
  1011c6:	46c0      	nop			; (mov r8, r8)
  1011c8:	fffc0000 			; <UNDEFINED> instruction: 0xfffc0000

001011cc <usart1_configure>:
  1011cc:	4b09      	ldr	r3, [pc, #36]	; (1011f4 <usart1_configure+0x28>)
  1011ce:	691a      	ldr	r2, [r3, #16]
  1011d0:	2180      	movs	r1, #128	; 0x80
  1011d2:	430a      	orrs	r2, r1
  1011d4:	b500      	push	{lr}
  1011d6:	611a      	str	r2, [r3, #16]
  1011d8:	4b07      	ldr	r3, [pc, #28]	; (1011f8 <usart1_configure+0x2c>)
  1011da:	22c0      	movs	r2, #192	; 0xc0
  1011dc:	6859      	ldr	r1, [r3, #4]
  1011de:	03d2      	lsls	r2, r2, #15
  1011e0:	430a      	orrs	r2, r1
  1011e2:	0401      	lsls	r1, r0, #16
  1011e4:	605a      	str	r2, [r3, #4]
  1011e6:	0c09      	lsrs	r1, r1, #16
  1011e8:	4804      	ldr	r0, [pc, #16]	; (1011fc <usart1_configure+0x30>)
  1011ea:	f7ff ff48 	bl	10107e <usart_configure>
  1011ee:	bc01      	pop	{r0}
  1011f0:	4700      	bx	r0
  1011f2:	46c0      	nop			; (mov r8, r8)
  1011f4:	fffffc00 			; <UNDEFINED> instruction: 0xfffffc00
  1011f8:	fffff400 			; <UNDEFINED> instruction: 0xfffff400
  1011fc:	fffc4000 			; <UNDEFINED> instruction: 0xfffc4000

00101200 <usart1_enable>:
  101200:	4b02      	ldr	r3, [pc, #8]	; (10120c <usart1_enable+0xc>)
  101202:	681a      	ldr	r2, [r3, #0]
  101204:	2150      	movs	r1, #80	; 0x50
  101206:	430a      	orrs	r2, r1
  101208:	601a      	str	r2, [r3, #0]
  10120a:	4770      	bx	lr
  10120c:	fffc4000 			; <UNDEFINED> instruction: 0xfffc4000

00101210 <usart1_disable>:
  101210:	4b02      	ldr	r3, [pc, #8]	; (10121c <usart1_disable+0xc>)
  101212:	681a      	ldr	r2, [r3, #0]
  101214:	21a0      	movs	r1, #160	; 0xa0
  101216:	430a      	orrs	r2, r1
  101218:	601a      	str	r2, [r3, #0]
  10121a:	4770      	bx	lr
  10121c:	fffc4000 			; <UNDEFINED> instruction: 0xfffc4000

00101220 <usart1_ready>:
  101220:	4b02      	ldr	r3, [pc, #8]	; (10122c <usart1_ready+0xc>)
  101222:	6958      	ldr	r0, [r3, #20]
  101224:	2301      	movs	r3, #1
  101226:	4018      	ands	r0, r3
  101228:	4770      	bx	lr
  10122a:	46c0      	nop			; (mov r8, r8)
  10122c:	fffc4000 			; <UNDEFINED> instruction: 0xfffc4000

00101230 <usart1_put>:
  101230:	b500      	push	{lr}
  101232:	0601      	lsls	r1, r0, #24
  101234:	0e09      	lsrs	r1, r1, #24
  101236:	4802      	ldr	r0, [pc, #8]	; (101240 <usart1_put+0x10>)
  101238:	f7ff ff40 	bl	1010bc <usart_put_byte>
  10123c:	bc01      	pop	{r0}
  10123e:	4700      	bx	r0
  101240:	fffc4000 			; <UNDEFINED> instruction: 0xfffc4000

00101244 <usart1_get>:
  101244:	b500      	push	{lr}
  101246:	4802      	ldr	r0, [pc, #8]	; (101250 <usart1_get+0xc>)
  101248:	f7ff ff40 	bl	1010cc <usart_get_byte>
  10124c:	bc02      	pop	{r1}
  10124e:	4708      	bx	r1
  101250:	fffc4000 			; <UNDEFINED> instruction: 0xfffc4000

00101254 <usart1_push>:
  101254:	b500      	push	{lr}
  101256:	1c03      	adds	r3, r0, #0
  101258:	1c0a      	adds	r2, r1, #0
  10125a:	4803      	ldr	r0, [pc, #12]	; (101268 <usart1_push+0x14>)
  10125c:	1c19      	adds	r1, r3, #0
  10125e:	f7ff ff3d 	bl	1010dc <usart_push>
  101262:	bc01      	pop	{r0}
  101264:	4700      	bx	r0
  101266:	46c0      	nop			; (mov r8, r8)
  101268:	fffc4000 			; <UNDEFINED> instruction: 0xfffc4000

0010126c <usart1_pull>:
  10126c:	b500      	push	{lr}
  10126e:	1c03      	adds	r3, r0, #0
  101270:	1c0a      	adds	r2, r1, #0
  101272:	4803      	ldr	r0, [pc, #12]	; (101280 <usart1_pull+0x14>)
  101274:	1c19      	adds	r1, r3, #0
  101276:	f7ff ff40 	bl	1010fa <usart_pull>
  10127a:	bc01      	pop	{r0}
  10127c:	4700      	bx	r0
  10127e:	46c0      	nop			; (mov r8, r8)
  101280:	fffc4000 			; <UNDEFINED> instruction: 0xfffc4000

00101284 <dbgu_configure>:
  101284:	4770      	bx	lr

00101286 <dbgu_enable>:
  101286:	4770      	bx	lr

00101288 <dbgu_disable>:
  101288:	4770      	bx	lr

0010128a <dbgu_ready>:
  10128a:	2000      	movs	r0, #0
  10128c:	4770      	bx	lr

0010128e <dbgu_put>:
  10128e:	4770      	bx	lr

00101290 <dbgu_get>:
  101290:	2000      	movs	r0, #0
  101292:	4770      	bx	lr

00101294 <dbgu_push>:
  101294:	4770      	bx	lr

00101296 <dbgu_pull>:
  101296:	4770      	bx	lr

00101298 <usb_configure>:
  101298:	4770      	bx	lr

0010129a <usb_enable>:
  10129a:	4770      	bx	lr

0010129c <usb_disable>:
  10129c:	4770      	bx	lr

0010129e <usb_ready>:
  10129e:	2000      	movs	r0, #0
  1012a0:	4770      	bx	lr

001012a2 <usb_put>:
  1012a2:	4770      	bx	lr

001012a4 <usb_get>:
  1012a4:	2000      	movs	r0, #0
  1012a6:	4770      	bx	lr

001012a8 <usb_push>:
  1012a8:	4770      	bx	lr

001012aa <usb_pull>:
  1012aa:	4770      	bx	lr

001012ac <wifi_configure>:
  1012ac:	4770      	bx	lr
  1012ae:	ffff 4b02 	vtbl.8	d20, {d15-d18}, d2

001012b0 <device_configure>:
  1012b0:	4b02      	ldr	r3, [pc, #8]	; (1012bc <device_configure+0xc>)
  1012b2:	2202      	movs	r2, #2
  1012b4:	6158      	str	r0, [r3, #20]
  1012b6:	761a      	strb	r2, [r3, #24]
  1012b8:	4770      	bx	lr
  1012ba:	46c0      	nop			; (mov r8, r8)
  1012bc:	00200054 	eoreq	r0, r0, r4, asr r0

001012c0 <device_pull>:
  1012c0:	b5ff      	push	{r0, r1, r2, r3, r4, r5, r6, r7, lr}
  1012c2:	1c0d      	adds	r5, r1, #0
  1012c4:	0601      	lsls	r1, r0, #24
  1012c6:	9809      	ldr	r0, [sp, #36]	; 0x24
  1012c8:	1c16      	adds	r6, r2, #0
  1012ca:	ac09      	add	r4, sp, #36	; 0x24
  1012cc:	1c1f      	adds	r7, r3, #0
  1012ce:	062a      	lsls	r2, r5, #24
  1012d0:	cc08      	ldmia	r4!, {r3}
  1012d2:	9001      	str	r0, [sp, #4]
  1012d4:	0633      	lsls	r3, r6, #24
  1012d6:	a803      	add	r0, sp, #12
  1012d8:	9002      	str	r0, [sp, #8]
  1012da:	0e09      	lsrs	r1, r1, #24
  1012dc:	0e12      	lsrs	r2, r2, #24
  1012de:	0e1b      	lsrs	r3, r3, #24
  1012e0:	9700      	str	r7, [sp, #0]
  1012e2:	4804      	ldr	r0, [pc, #16]	; (1012f4 <device_pull+0x34>)
  1012e4:	9403      	str	r4, [sp, #12]
  1012e6:	f000 fb19 	bl	10191c <target_pull>
  1012ea:	b004      	add	sp, #16
  1012ec:	bcf0      	pop	{r4, r5, r6, r7}
  1012ee:	bc02      	pop	{r1}
  1012f0:	4708      	bx	r1
  1012f2:	46c0      	nop			; (mov r8, r8)
  1012f4:	00200054 	eoreq	r0, r0, r4, asr r0

001012f8 <device_push>:
  1012f8:	b5ff      	push	{r0, r1, r2, r3, r4, r5, r6, r7, lr}
  1012fa:	1c0d      	adds	r5, r1, #0
  1012fc:	0601      	lsls	r1, r0, #24
  1012fe:	9809      	ldr	r0, [sp, #36]	; 0x24
  101300:	1c16      	adds	r6, r2, #0
  101302:	ac09      	add	r4, sp, #36	; 0x24
  101304:	1c1f      	adds	r7, r3, #0
  101306:	062a      	lsls	r2, r5, #24
  101308:	cc08      	ldmia	r4!, {r3}
  10130a:	9001      	str	r0, [sp, #4]
  10130c:	0633      	lsls	r3, r6, #24
  10130e:	a803      	add	r0, sp, #12
  101310:	9002      	str	r0, [sp, #8]
  101312:	0e09      	lsrs	r1, r1, #24
  101314:	0e12      	lsrs	r2, r2, #24
  101316:	0e1b      	lsrs	r3, r3, #24
  101318:	9700      	str	r7, [sp, #0]
  10131a:	4804      	ldr	r0, [pc, #16]	; (10132c <device_push+0x34>)
  10131c:	9403      	str	r4, [sp, #12]
  10131e:	f000 fa7d 	bl	10181c <target_push>
  101322:	b004      	add	sp, #16
  101324:	bcf0      	pop	{r4, r5, r6, r7}
  101326:	bc02      	pop	{r1}
  101328:	4708      	bx	r1
  10132a:	46c0      	nop			; (mov r8, r8)
  10132c:	00200054 	eoreq	r0, r0, r4, asr r0

00101330 <device_invoke>:
  101330:	b40c      	push	{r2, r3}
  101332:	b513      	push	{r0, r1, r4, lr}
  101334:	ac04      	add	r4, sp, #16
  101336:	cc08      	ldmia	r4!, {r3}
  101338:	1c0a      	adds	r2, r1, #0
  10133a:	0612      	lsls	r2, r2, #24
  10133c:	0601      	lsls	r1, r0, #24
  10133e:	061b      	lsls	r3, r3, #24
  101340:	a801      	add	r0, sp, #4
  101342:	9000      	str	r0, [sp, #0]
  101344:	0e09      	lsrs	r1, r1, #24
  101346:	0e12      	lsrs	r2, r2, #24
  101348:	0e1b      	lsrs	r3, r3, #24
  10134a:	4804      	ldr	r0, [pc, #16]	; (10135c <device_invoke+0x2c>)
  10134c:	9401      	str	r4, [sp, #4]
  10134e:	f000 fa19 	bl	101784 <target_invoke>
  101352:	bc16      	pop	{r1, r2, r4}
  101354:	bc08      	pop	{r3}
  101356:	b002      	add	sp, #8
  101358:	4718      	bx	r3
  10135a:	46c0      	nop			; (mov r8, r8)
  10135c:	00200054 	eoreq	r0, r0, r4, asr r0

00101360 <device_call>:
  101360:	b510      	push	{r4, lr}
  101362:	4c06      	ldr	r4, [pc, #24]	; (10137c <device_call+0x1c>)
  101364:	4806      	ldr	r0, [pc, #24]	; (101380 <device_call+0x20>)
  101366:	6963      	ldr	r3, [r4, #20]
  101368:	7841      	ldrb	r1, [r0, #1]
  10136a:	699b      	ldr	r3, [r3, #24]
  10136c:	f000 f80a 	bl	101384 <device_call+0x24>
  101370:	1c20      	adds	r0, r4, #0
  101372:	f000 f839 	bl	1013e8 <fmr_obtain_response>
  101376:	bc10      	pop	{r4}
  101378:	bc02      	pop	{r1}
  10137a:	4708      	bx	r1
  10137c:	00200054 	eoreq	r0, r0, r4, asr r0
  101380:	00200a98 	mlaeq	r0, r8, sl, r0
  101384:	4718      	bx	r3
  101386:	46c0      	nop			; (mov r8, r8)

00101388 <fmr_parse>:
  101388:	b531      	push	{r0, r4, r5, lr}
  10138a:	1c05      	adds	r5, r0, #0
  10138c:	4813      	ldr	r0, [pc, #76]	; (1013dc <fmr_parse+0x54>)
  10138e:	1f04      	subs	r4, r0, #4
  101390:	7861      	ldrb	r1, [r4, #1]
  101392:	3904      	subs	r1, #4
  101394:	0409      	lsls	r1, r1, #16
  101396:	0c09      	lsrs	r1, r1, #16
  101398:	f7ff faec 	bl	100974 <checksum>
  10139c:	2200      	movs	r2, #0
  10139e:	9200      	str	r2, [sp, #0]
  1013a0:	78e3      	ldrb	r3, [r4, #3]
  1013a2:	78a1      	ldrb	r1, [r4, #2]
  1013a4:	021b      	lsls	r3, r3, #8
  1013a6:	430b      	orrs	r3, r1
  1013a8:	4298      	cmp	r0, r3
  1013aa:	d004      	beq.n	1013b6 <fmr_parse+0x2e>
  1013ac:	2019      	movs	r0, #25
  1013ae:	1c11      	adds	r1, r2, #0
  1013b0:	f7ff fdab 	bl	100f0a <led_set_rgb>
  1013b4:	e007      	b.n	1013c6 <fmr_parse+0x3e>
  1013b6:	7922      	ldrb	r2, [r4, #4]
  1013b8:	4b09      	ldr	r3, [pc, #36]	; (1013e0 <fmr_parse+0x58>)
  1013ba:	0092      	lsls	r2, r2, #2
  1013bc:	58d3      	ldr	r3, [r2, r3]
  1013be:	685b      	ldr	r3, [r3, #4]
  1013c0:	f000 f810 	bl	1013e4 <fmr_parse+0x5c>
  1013c4:	9000      	str	r0, [sp, #0]
  1013c6:	696b      	ldr	r3, [r5, #20]
  1013c8:	4668      	mov	r0, sp
  1013ca:	699b      	ldr	r3, [r3, #24]
  1013cc:	2104      	movs	r1, #4
  1013ce:	f000 f809 	bl	1013e4 <fmr_parse+0x5c>
  1013d2:	2000      	movs	r0, #0
  1013d4:	bc32      	pop	{r1, r4, r5}
  1013d6:	bc02      	pop	{r1}
  1013d8:	4708      	bx	r1
  1013da:	46c0      	nop			; (mov r8, r8)
  1013dc:	00200a9c 	mlaeq	r0, ip, sl, r0
  1013e0:	0010916c 	andseq	r9, r0, ip, ror #2
  1013e4:	4718      	bx	r3
  1013e6:	46c0      	nop			; (mov r8, r8)

001013e8 <fmr_obtain_response>:
  1013e8:	b501      	push	{r0, lr}
  1013ea:	6943      	ldr	r3, [r0, #20]
  1013ec:	2104      	movs	r1, #4
  1013ee:	4668      	mov	r0, sp
  1013f0:	69db      	ldr	r3, [r3, #28]
  1013f2:	f000 f804 	bl	1013fe <fmr_obtain_response+0x16>
  1013f6:	9800      	ldr	r0, [sp, #0]
  1013f8:	b001      	add	sp, #4
  1013fa:	bc02      	pop	{r1}
  1013fc:	4708      	bx	r1
  1013fe:	4718      	bx	r3

00101400 <fmr_broadcast>:
  101400:	4b05      	ldr	r3, [pc, #20]	; (101418 <fmr_broadcast+0x18>)
  101402:	b500      	push	{lr}
  101404:	681b      	ldr	r3, [r3, #0]
  101406:	4805      	ldr	r0, [pc, #20]	; (10141c <fmr_broadcast+0x1c>)
  101408:	695b      	ldr	r3, [r3, #20]
  10140a:	7841      	ldrb	r1, [r0, #1]
  10140c:	699b      	ldr	r3, [r3, #24]
  10140e:	f000 f807 	bl	101420 <fmr_broadcast+0x20>
  101412:	bc01      	pop	{r0}
  101414:	4700      	bx	r0
  101416:	46c0      	nop			; (mov r8, r8)
  101418:	00200ad8 	ldrdeq	r0, [r0], -r8	; <UNPREDICTABLE>
  10141c:	00200a98 	mlaeq	r0, r8, sl, r0
  101420:	4718      	bx	r3
  101422:	46c0      	nop			; (mov r8, r8)

00101424 <fmr_retrieve>:
  101424:	4a21      	ldr	r2, [pc, #132]	; (1014ac <fmr_retrieve+0x88>)
  101426:	b530      	push	{r4, r5, lr}
  101428:	6813      	ldr	r3, [r2, #0]
  10142a:	695b      	ldr	r3, [r3, #20]
  10142c:	1c59      	adds	r1, r3, #1
  10142e:	7fc9      	ldrb	r1, [r1, #31]
  101430:	1c14      	adds	r4, r2, #0
  101432:	2900      	cmp	r1, #0
  101434:	d005      	beq.n	101442 <fmr_retrieve+0x1e>
  101436:	69db      	ldr	r3, [r3, #28]
  101438:	481d      	ldr	r0, [pc, #116]	; (1014b0 <fmr_retrieve+0x8c>)
  10143a:	2140      	movs	r1, #64	; 0x40
  10143c:	f000 f83c 	bl	1014b8 <fmr_retrieve+0x94>
  101440:	e030      	b.n	1014a4 <fmr_retrieve+0x80>
  101442:	6823      	ldr	r3, [r4, #0]
  101444:	695b      	ldr	r3, [r3, #20]
  101446:	695b      	ldr	r3, [r3, #20]
  101448:	f000 f836 	bl	1014b8 <fmr_retrieve+0x94>
  10144c:	28fe      	cmp	r0, #254	; 0xfe
  10144e:	d1f8      	bne.n	101442 <fmr_retrieve+0x1e>
  101450:	4c18      	ldr	r4, [pc, #96]	; (1014b4 <fmr_retrieve+0x90>)
  101452:	1ce5      	adds	r5, r4, #3
  101454:	4b15      	ldr	r3, [pc, #84]	; (1014ac <fmr_retrieve+0x88>)
  101456:	681b      	ldr	r3, [r3, #0]
  101458:	695b      	ldr	r3, [r3, #20]
  10145a:	695b      	ldr	r3, [r3, #20]
  10145c:	f000 f82c 	bl	1014b8 <fmr_retrieve+0x94>
  101460:	7020      	strb	r0, [r4, #0]
  101462:	3401      	adds	r4, #1
  101464:	42ac      	cmp	r4, r5
  101466:	d1f5      	bne.n	101454 <fmr_retrieve+0x30>
  101468:	2400      	movs	r4, #0
  10146a:	e008      	b.n	10147e <fmr_retrieve+0x5a>
  10146c:	4b0f      	ldr	r3, [pc, #60]	; (1014ac <fmr_retrieve+0x88>)
  10146e:	681b      	ldr	r3, [r3, #0]
  101470:	695b      	ldr	r3, [r3, #20]
  101472:	695b      	ldr	r3, [r3, #20]
  101474:	f000 f820 	bl	1014b8 <fmr_retrieve+0x94>
  101478:	1965      	adds	r5, r4, r5
  10147a:	7128      	strb	r0, [r5, #4]
  10147c:	3401      	adds	r4, #1
  10147e:	4d0c      	ldr	r5, [pc, #48]	; (1014b0 <fmr_retrieve+0x8c>)
  101480:	786b      	ldrb	r3, [r5, #1]
  101482:	3b04      	subs	r3, #4
  101484:	429c      	cmp	r4, r3
  101486:	d3f1      	bcc.n	10146c <fmr_retrieve+0x48>
  101488:	e004      	b.n	101494 <fmr_retrieve+0x70>
  10148a:	6823      	ldr	r3, [r4, #0]
  10148c:	695b      	ldr	r3, [r3, #20]
  10148e:	695b      	ldr	r3, [r3, #20]
  101490:	f000 f812 	bl	1014b8 <fmr_retrieve+0x94>
  101494:	4c05      	ldr	r4, [pc, #20]	; (1014ac <fmr_retrieve+0x88>)
  101496:	6823      	ldr	r3, [r4, #0]
  101498:	695b      	ldr	r3, [r3, #20]
  10149a:	68db      	ldr	r3, [r3, #12]
  10149c:	f000 f80c 	bl	1014b8 <fmr_retrieve+0x94>
  1014a0:	2800      	cmp	r0, #0
  1014a2:	d1f2      	bne.n	10148a <fmr_retrieve+0x66>
  1014a4:	bc30      	pop	{r4, r5}
  1014a6:	bc01      	pop	{r0}
  1014a8:	4700      	bx	r0
  1014aa:	46c0      	nop			; (mov r8, r8)
  1014ac:	00200ad8 	ldrdeq	r0, [r0], -r8	; <UNPREDICTABLE>
  1014b0:	00200a98 	mlaeq	r0, r8, sl, r0
  1014b4:	00200a99 	mlaeq	r0, r9, sl, r0
  1014b8:	4718      	bx	r3
  1014ba:	46c0      	nop			; (mov r8, r8)

001014bc <host_configure>:
  1014bc:	4b02      	ldr	r3, [pc, #8]	; (1014c8 <host_configure+0xc>)
  1014be:	2200      	movs	r2, #0
  1014c0:	6158      	str	r0, [r3, #20]
  1014c2:	761a      	strb	r2, [r3, #24]
  1014c4:	4770      	bx	lr
  1014c6:	46c0      	nop			; (mov r8, r8)
  1014c8:	00200070 	eoreq	r0, r0, r0, ror r0

001014cc <host_call>:
  1014cc:	2000      	movs	r0, #0
  1014ce:	4770      	bx	lr

001014d0 <host_pull>:
  1014d0:	b5ff      	push	{r0, r1, r2, r3, r4, r5, r6, r7, lr}
  1014d2:	1c0d      	adds	r5, r1, #0
  1014d4:	0601      	lsls	r1, r0, #24
  1014d6:	9809      	ldr	r0, [sp, #36]	; 0x24
  1014d8:	1c16      	adds	r6, r2, #0
  1014da:	ac09      	add	r4, sp, #36	; 0x24
  1014dc:	1c1f      	adds	r7, r3, #0
  1014de:	062a      	lsls	r2, r5, #24
  1014e0:	cc08      	ldmia	r4!, {r3}
  1014e2:	9001      	str	r0, [sp, #4]
  1014e4:	0633      	lsls	r3, r6, #24
  1014e6:	a803      	add	r0, sp, #12
  1014e8:	9002      	str	r0, [sp, #8]
  1014ea:	0e09      	lsrs	r1, r1, #24
  1014ec:	0e12      	lsrs	r2, r2, #24
  1014ee:	0e1b      	lsrs	r3, r3, #24
  1014f0:	9700      	str	r7, [sp, #0]
  1014f2:	4804      	ldr	r0, [pc, #16]	; (101504 <host_pull+0x34>)
  1014f4:	9403      	str	r4, [sp, #12]
  1014f6:	f000 fa11 	bl	10191c <target_pull>
  1014fa:	b004      	add	sp, #16
  1014fc:	bcf0      	pop	{r4, r5, r6, r7}
  1014fe:	bc02      	pop	{r1}
  101500:	4708      	bx	r1
  101502:	46c0      	nop			; (mov r8, r8)
  101504:	00200070 	eoreq	r0, r0, r0, ror r0

00101508 <host_push>:
  101508:	b5ff      	push	{r0, r1, r2, r3, r4, r5, r6, r7, lr}
  10150a:	1c0d      	adds	r5, r1, #0
  10150c:	0601      	lsls	r1, r0, #24
  10150e:	9809      	ldr	r0, [sp, #36]	; 0x24
  101510:	1c16      	adds	r6, r2, #0
  101512:	ac09      	add	r4, sp, #36	; 0x24
  101514:	1c1f      	adds	r7, r3, #0
  101516:	062a      	lsls	r2, r5, #24
  101518:	cc08      	ldmia	r4!, {r3}
  10151a:	9001      	str	r0, [sp, #4]
  10151c:	0633      	lsls	r3, r6, #24
  10151e:	a803      	add	r0, sp, #12
  101520:	9002      	str	r0, [sp, #8]
  101522:	0e09      	lsrs	r1, r1, #24
  101524:	0e12      	lsrs	r2, r2, #24
  101526:	0e1b      	lsrs	r3, r3, #24
  101528:	9700      	str	r7, [sp, #0]
  10152a:	4804      	ldr	r0, [pc, #16]	; (10153c <host_push+0x34>)
  10152c:	9403      	str	r4, [sp, #12]
  10152e:	f000 f975 	bl	10181c <target_push>
  101532:	b004      	add	sp, #16
  101534:	bcf0      	pop	{r4, r5, r6, r7}
  101536:	bc02      	pop	{r1}
  101538:	4708      	bx	r1
  10153a:	46c0      	nop			; (mov r8, r8)
  10153c:	00200070 	eoreq	r0, r0, r0, ror r0

00101540 <host_invoke>:
  101540:	b40c      	push	{r2, r3}
  101542:	b513      	push	{r0, r1, r4, lr}
  101544:	ac04      	add	r4, sp, #16
  101546:	cc08      	ldmia	r4!, {r3}
  101548:	1c0a      	adds	r2, r1, #0
  10154a:	0612      	lsls	r2, r2, #24
  10154c:	0601      	lsls	r1, r0, #24
  10154e:	061b      	lsls	r3, r3, #24
  101550:	a801      	add	r0, sp, #4
  101552:	9000      	str	r0, [sp, #0]
  101554:	0e09      	lsrs	r1, r1, #24
  101556:	0e12      	lsrs	r2, r2, #24
  101558:	0e1b      	lsrs	r3, r3, #24
  10155a:	4804      	ldr	r0, [pc, #16]	; (10156c <host_invoke+0x2c>)
  10155c:	9401      	str	r4, [sp, #4]
  10155e:	f000 f911 	bl	101784 <target_invoke>
  101562:	bc16      	pop	{r1, r2, r4}
  101564:	bc08      	pop	{r3}
  101566:	b002      	add	sp, #8
  101568:	4718      	bx	r3
  10156a:	46c0      	nop			; (mov r8, r8)
  10156c:	00200070 	eoreq	r0, r0, r0, ror r0

00101570 <self_configure>:
  101570:	4770      	bx	lr

00101572 <self_invoke>:
  101572:	2000      	movs	r0, #0
  101574:	4770      	bx	lr
  101576:	ffff b500 	vabal.u<illegal width 64>	<illegal reg q13.5>, d15, d0

00101578 <self_call>:
  101578:	b500      	push	{lr}
  10157a:	4a07      	ldr	r2, [pc, #28]	; (101598 <self_call+0x20>)
  10157c:	7950      	ldrb	r0, [r2, #5]
  10157e:	4b07      	ldr	r3, [pc, #28]	; (10159c <self_call+0x24>)
  101580:	7991      	ldrb	r1, [r2, #6]
  101582:	0080      	lsls	r0, r0, #2
  101584:	58c3      	ldr	r3, [r0, r3]
  101586:	0089      	lsls	r1, r1, #2
  101588:	58c8      	ldr	r0, [r1, r3]
  10158a:	79d1      	ldrb	r1, [r2, #7]
  10158c:	3208      	adds	r2, #8
  10158e:	f000 fa87 	bl	101aa0 <internal_call>
  101592:	bc02      	pop	{r1}
  101594:	4708      	bx	r1
  101596:	46c0      	nop			; (mov r8, r8)
  101598:	00200a98 	mlaeq	r0, r8, sl, r0
  10159c:	0010916c 	andseq	r9, r0, ip, ror #2

001015a0 <self_pull>:
  1015a0:	b5f7      	push	{r0, r1, r2, r4, r5, r6, r7, lr}
  1015a2:	0600      	lsls	r0, r0, #24
  1015a4:	1c1e      	adds	r6, r3, #0
  1015a6:	0609      	lsls	r1, r1, #24
  1015a8:	0e03      	lsrs	r3, r0, #24
  1015aa:	9300      	str	r3, [sp, #0]
  1015ac:	1c30      	adds	r0, r6, #0
  1015ae:	0e0b      	lsrs	r3, r1, #24
  1015b0:	0617      	lsls	r7, r2, #24
  1015b2:	9301      	str	r3, [sp, #4]
  1015b4:	f000 fc38 	bl	101e28 <malloc>
  1015b8:	0e3f      	lsrs	r7, r7, #24
  1015ba:	1c05      	adds	r5, r0, #0
  1015bc:	9002      	str	r0, [sp, #8]
  1015be:	2800      	cmp	r0, #0
  1015c0:	d10e      	bne.n	1015e0 <self_pull+0x40>
  1015c2:	2019      	movs	r0, #25
  1015c4:	1c29      	adds	r1, r5, #0
  1015c6:	1c2a      	adds	r2, r5, #0
  1015c8:	f7ff fc9f 	bl	100f0a <led_set_rgb>
  1015cc:	4b2b      	ldr	r3, [pc, #172]	; (10167c <self_pull+0xdc>)
  1015ce:	681b      	ldr	r3, [r3, #0]
  1015d0:	695b      	ldr	r3, [r3, #20]
  1015d2:	a802      	add	r0, sp, #8
  1015d4:	699b      	ldr	r3, [r3, #24]
  1015d6:	2104      	movs	r1, #4
  1015d8:	f000 f856 	bl	101688 <self_pull+0xe8>
  1015dc:	9500      	str	r5, [sp, #0]
  1015de:	e049      	b.n	101674 <self_pull+0xd4>
  1015e0:	466b      	mov	r3, sp
  1015e2:	4c27      	ldr	r4, [pc, #156]	; (101680 <self_pull+0xe0>)
  1015e4:	791b      	ldrb	r3, [r3, #4]
  1015e6:	466a      	mov	r2, sp
  1015e8:	71a3      	strb	r3, [r4, #6]
  1015ea:	1dbb      	adds	r3, r7, #6
  1015ec:	7812      	ldrb	r2, [r2, #0]
  1015ee:	71e3      	strb	r3, [r4, #7]
  1015f0:	0a03      	lsrs	r3, r0, #8
  1015f2:	7223      	strb	r3, [r4, #8]
  1015f4:	0c33      	lsrs	r3, r6, #16
  1015f6:	7162      	strb	r2, [r4, #5]
  1015f8:	7260      	strb	r0, [r4, #9]
  1015fa:	0a1a      	lsrs	r2, r3, #8
  1015fc:	1c20      	adds	r0, r4, #0
  1015fe:	1c21      	adds	r1, r4, #0
  101600:	72a2      	strb	r2, [r4, #10]
  101602:	72e3      	strb	r3, [r4, #11]
  101604:	3112      	adds	r1, #18
  101606:	0a33      	lsrs	r3, r6, #8
  101608:	1c3a      	adds	r2, r7, #0
  10160a:	300e      	adds	r0, #14
  10160c:	7323      	strb	r3, [r4, #12]
  10160e:	7366      	strb	r6, [r4, #13]
  101610:	f000 fe27 	bl	102262 <memmove>
  101614:	f7ff ffb0 	bl	101578 <self_call>
  101618:	23fe      	movs	r3, #254	; 0xfe
  10161a:	7023      	strb	r3, [r4, #0]
  10161c:	2304      	movs	r3, #4
  10161e:	7063      	strb	r3, [r4, #1]
  101620:	9000      	str	r0, [sp, #0]
  101622:	18e4      	adds	r4, r4, r3
  101624:	e021      	b.n	10166a <self_pull+0xca>
  101626:	3401      	adds	r4, #1
  101628:	782a      	ldrb	r2, [r5, #0]
  10162a:	7022      	strb	r2, [r4, #0]
  10162c:	4a14      	ldr	r2, [pc, #80]	; (101680 <self_pull+0xe0>)
  10162e:	7851      	ldrb	r1, [r2, #1]
  101630:	3101      	adds	r1, #1
  101632:	0609      	lsls	r1, r1, #24
  101634:	0e09      	lsrs	r1, r1, #24
  101636:	3e01      	subs	r6, #1
  101638:	3501      	adds	r5, #1
  10163a:	7051      	strb	r1, [r2, #1]
  10163c:	2e00      	cmp	r6, #0
  10163e:	d002      	beq.n	101646 <self_pull+0xa6>
  101640:	3b01      	subs	r3, #1
  101642:	2b00      	cmp	r3, #0
  101644:	d1ef      	bne.n	101626 <self_pull+0x86>
  101646:	4f0f      	ldr	r7, [pc, #60]	; (101684 <self_pull+0xe4>)
  101648:	3904      	subs	r1, #4
  10164a:	0409      	lsls	r1, r1, #16
  10164c:	0c09      	lsrs	r1, r1, #16
  10164e:	1c38      	adds	r0, r7, #0
  101650:	f7ff f990 	bl	100974 <checksum>
  101654:	1f3c      	subs	r4, r7, #4
  101656:	70a0      	strb	r0, [r4, #2]
  101658:	0a00      	lsrs	r0, r0, #8
  10165a:	70e0      	strb	r0, [r4, #3]
  10165c:	f7ff fed0 	bl	101400 <fmr_broadcast>
  101660:	2e00      	cmp	r6, #0
  101662:	d004      	beq.n	10166e <self_pull+0xce>
  101664:	2304      	movs	r3, #4
  101666:	7063      	strb	r3, [r4, #1]
  101668:	1c3c      	adds	r4, r7, #0
  10166a:	233c      	movs	r3, #60	; 0x3c
  10166c:	e7dc      	b.n	101628 <self_pull+0x88>
  10166e:	9802      	ldr	r0, [sp, #8]
  101670:	f000 fbe4 	bl	101e3c <free>
  101674:	9800      	ldr	r0, [sp, #0]
  101676:	bcfe      	pop	{r1, r2, r3, r4, r5, r6, r7}
  101678:	bc02      	pop	{r1}
  10167a:	4708      	bx	r1
  10167c:	00200ad8 	ldrdeq	r0, [r0], -r8	; <UNPREDICTABLE>
  101680:	00200a98 	mlaeq	r0, r8, sl, r0
  101684:	00200a9c 	mlaeq	r0, ip, sl, r0
  101688:	4718      	bx	r3
  10168a:	46c0      	nop			; (mov r8, r8)

0010168c <self_push>:
  10168c:	b5ff      	push	{r0, r1, r2, r3, r4, r5, r6, r7, lr}
  10168e:	0600      	lsls	r0, r0, #24
  101690:	0609      	lsls	r1, r1, #24
  101692:	1c1e      	adds	r6, r3, #0
  101694:	0e03      	lsrs	r3, r0, #24
  101696:	9301      	str	r3, [sp, #4]
  101698:	1c30      	adds	r0, r6, #0
  10169a:	0e0b      	lsrs	r3, r1, #24
  10169c:	0614      	lsls	r4, r2, #24
  10169e:	9302      	str	r3, [sp, #8]
  1016a0:	f000 fbc2 	bl	101e28 <malloc>
  1016a4:	0e24      	lsrs	r4, r4, #24
  1016a6:	1c05      	adds	r5, r0, #0
  1016a8:	1c20      	adds	r0, r4, #0
  1016aa:	f000 fbbd 	bl	101e28 <malloc>
  1016ae:	9000      	str	r0, [sp, #0]
  1016b0:	2800      	cmp	r0, #0
  1016b2:	d001      	beq.n	1016b8 <self_push+0x2c>
  1016b4:	2d00      	cmp	r5, #0
  1016b6:	d10e      	bne.n	1016d6 <self_push+0x4a>
  1016b8:	2100      	movs	r1, #0
  1016ba:	1c0a      	adds	r2, r1, #0
  1016bc:	2019      	movs	r0, #25
  1016be:	f7ff fc24 	bl	100f0a <led_set_rgb>
  1016c2:	4b26      	ldr	r3, [pc, #152]	; (10175c <self_push+0xd0>)
  1016c4:	681b      	ldr	r3, [r3, #0]
  1016c6:	695b      	ldr	r3, [r3, #20]
  1016c8:	a803      	add	r0, sp, #12
  1016ca:	699b      	ldr	r3, [r3, #24]
  1016cc:	2104      	movs	r1, #4
  1016ce:	f000 f84d 	bl	10176c <self_push+0xe0>
  1016d2:	2000      	movs	r0, #0
  1016d4:	e03d      	b.n	101752 <self_push+0xc6>
  1016d6:	4f22      	ldr	r7, [pc, #136]	; (101760 <self_push+0xd4>)
  1016d8:	1c22      	adds	r2, r4, #0
  1016da:	1c39      	adds	r1, r7, #0
  1016dc:	9800      	ldr	r0, [sp, #0]
  1016de:	f000 fdb7 	bl	102250 <memcpy>
  1016e2:	232e      	movs	r3, #46	; 0x2e
  1016e4:	193a      	adds	r2, r7, r4
  1016e6:	1b1b      	subs	r3, r3, r4
  1016e8:	1c2f      	adds	r7, r5, #0
  1016ea:	7811      	ldrb	r1, [r2, #0]
  1016ec:	7039      	strb	r1, [r7, #0]
  1016ee:	3701      	adds	r7, #1
  1016f0:	19a9      	adds	r1, r5, r6
  1016f2:	428f      	cmp	r7, r1
  1016f4:	d008      	beq.n	101708 <self_push+0x7c>
  1016f6:	3b01      	subs	r3, #1
  1016f8:	3201      	adds	r2, #1
  1016fa:	2b00      	cmp	r3, #0
  1016fc:	d1f5      	bne.n	1016ea <self_push+0x5e>
  1016fe:	f7ff fe91 	bl	101424 <fmr_retrieve>
  101702:	4a18      	ldr	r2, [pc, #96]	; (101764 <self_push+0xd8>)
  101704:	233c      	movs	r3, #60	; 0x3c
  101706:	e7f0      	b.n	1016ea <self_push+0x5e>
  101708:	466a      	mov	r2, sp
  10170a:	4817      	ldr	r0, [pc, #92]	; (101768 <self_push+0xdc>)
  10170c:	7912      	ldrb	r2, [r2, #4]
  10170e:	2301      	movs	r3, #1
  101710:	7103      	strb	r3, [r0, #4]
  101712:	7142      	strb	r2, [r0, #5]
  101714:	466b      	mov	r3, sp
  101716:	2208      	movs	r2, #8
  101718:	5cd3      	ldrb	r3, [r2, r3]
  10171a:	7183      	strb	r3, [r0, #6]
  10171c:	1da3      	adds	r3, r4, #6
  10171e:	71c3      	strb	r3, [r0, #7]
  101720:	0a2b      	lsrs	r3, r5, #8
  101722:	7203      	strb	r3, [r0, #8]
  101724:	0c33      	lsrs	r3, r6, #16
  101726:	0a1a      	lsrs	r2, r3, #8
  101728:	72c3      	strb	r3, [r0, #11]
  10172a:	0a33      	lsrs	r3, r6, #8
  10172c:	7303      	strb	r3, [r0, #12]
  10172e:	9900      	ldr	r1, [sp, #0]
  101730:	7282      	strb	r2, [r0, #10]
  101732:	7245      	strb	r5, [r0, #9]
  101734:	1c22      	adds	r2, r4, #0
  101736:	7346      	strb	r6, [r0, #13]
  101738:	300e      	adds	r0, #14
  10173a:	f000 fd92 	bl	102262 <memmove>
  10173e:	9800      	ldr	r0, [sp, #0]
  101740:	f000 fb7c 	bl	101e3c <free>
  101744:	f7ff ff18 	bl	101578 <self_call>
  101748:	9003      	str	r0, [sp, #12]
  10174a:	1c28      	adds	r0, r5, #0
  10174c:	f000 fb76 	bl	101e3c <free>
  101750:	9803      	ldr	r0, [sp, #12]
  101752:	b004      	add	sp, #16
  101754:	bcf0      	pop	{r4, r5, r6, r7}
  101756:	bc02      	pop	{r1}
  101758:	4708      	bx	r1
  10175a:	46c0      	nop			; (mov r8, r8)
  10175c:	00200ad8 	ldrdeq	r0, [r0], -r8	; <UNPREDICTABLE>
  101760:	00200aaa 	eoreq	r0, r0, sl, lsr #21
  101764:	00200a9c 	mlaeq	r0, ip, sl, r0
  101768:	00200a98 	mlaeq	r0, r8, sl, r0
  10176c:	4718      	bx	r3
  10176e:	46c0      	nop			; (mov r8, r8)

00101770 <validate_target>:
  101770:	6943      	ldr	r3, [r0, #20]
  101772:	b500      	push	{lr}
  101774:	2b00      	cmp	r3, #0
  101776:	d102      	bne.n	10177e <validate_target+0xe>
  101778:	2001      	movs	r0, #1
  10177a:	f000 fb41 	bl	101e00 <exit>
  10177e:	bc01      	pop	{r0}
  101780:	4700      	bx	r0
  101782:	ffff b5f0 	vsli.64	<illegal reg q13.5>, q8, #63	; 0x3f

00101784 <target_invoke>:
  101784:	b5f0      	push	{r4, r5, r6, r7, lr}
  101786:	061f      	lsls	r7, r3, #24
  101788:	4b20      	ldr	r3, [pc, #128]	; (10180c <target_invoke+0x88>)
  10178a:	060e      	lsls	r6, r1, #24
  10178c:	0615      	lsls	r5, r2, #24
  10178e:	6018      	str	r0, [r3, #0]
  101790:	1c04      	adds	r4, r0, #0
  101792:	f7ff ffed 	bl	101770 <validate_target>
  101796:	481e      	ldr	r0, [pc, #120]	; (101810 <target_invoke+0x8c>)
  101798:	0e3f      	lsrs	r7, r7, #24
  10179a:	7801      	ldrb	r1, [r0, #0]
  10179c:	007f      	lsls	r7, r7, #1
  10179e:	063f      	lsls	r7, r7, #24
  1017a0:	0e3f      	lsrs	r7, r7, #24
  1017a2:	3108      	adds	r1, #8
  1017a4:	4b1b      	ldr	r3, [pc, #108]	; (101814 <target_invoke+0x90>)
  1017a6:	1879      	adds	r1, r7, r1
  1017a8:	22fe      	movs	r2, #254	; 0xfe
  1017aa:	0609      	lsls	r1, r1, #24
  1017ac:	701a      	strb	r2, [r3, #0]
  1017ae:	0e09      	lsrs	r1, r1, #24
  1017b0:	2200      	movs	r2, #0
  1017b2:	7002      	strb	r2, [r0, #0]
  1017b4:	0e36      	lsrs	r6, r6, #24
  1017b6:	0e2d      	lsrs	r5, r5, #24
  1017b8:	7059      	strb	r1, [r3, #1]
  1017ba:	1c10      	adds	r0, r2, #0
  1017bc:	2940      	cmp	r1, #64	; 0x40
  1017be:	d821      	bhi.n	101804 <target_invoke+0x80>
  1017c0:	7e21      	ldrb	r1, [r4, #24]
  1017c2:	715e      	strb	r6, [r3, #5]
  1017c4:	7119      	strb	r1, [r3, #4]
  1017c6:	719d      	strb	r5, [r3, #6]
  1017c8:	71df      	strb	r7, [r3, #7]
  1017ca:	e009      	b.n	1017e0 <target_invoke+0x5c>
  1017cc:	9d05      	ldr	r5, [sp, #20]
  1017ce:	6829      	ldr	r1, [r5, #0]
  1017d0:	1d08      	adds	r0, r1, #4
  1017d2:	6028      	str	r0, [r5, #0]
  1017d4:	6808      	ldr	r0, [r1, #0]
  1017d6:	18d1      	adds	r1, r2, r3
  1017d8:	0a05      	lsrs	r5, r0, #8
  1017da:	720d      	strb	r5, [r1, #8]
  1017dc:	7248      	strb	r0, [r1, #9]
  1017de:	3202      	adds	r2, #2
  1017e0:	42ba      	cmp	r2, r7
  1017e2:	d3f3      	bcc.n	1017cc <target_invoke+0x48>
  1017e4:	480c      	ldr	r0, [pc, #48]	; (101818 <target_invoke+0x94>)
  1017e6:	1f05      	subs	r5, r0, #4
  1017e8:	7869      	ldrb	r1, [r5, #1]
  1017ea:	3904      	subs	r1, #4
  1017ec:	0409      	lsls	r1, r1, #16
  1017ee:	0c09      	lsrs	r1, r1, #16
  1017f0:	f7ff f8c0 	bl	100974 <checksum>
  1017f4:	70a8      	strb	r0, [r5, #2]
  1017f6:	0a00      	lsrs	r0, r0, #8
  1017f8:	70e8      	strb	r0, [r5, #3]
  1017fa:	f7ff fe01 	bl	101400 <fmr_broadcast>
  1017fe:	1c20      	adds	r0, r4, #0
  101800:	f7ff fdf2 	bl	1013e8 <fmr_obtain_response>
  101804:	bcf0      	pop	{r4, r5, r6, r7}
  101806:	bc02      	pop	{r1}
  101808:	4708      	bx	r1
  10180a:	46c0      	nop			; (mov r8, r8)
  10180c:	00200ad8 	ldrdeq	r0, [r0], -r8	; <UNPREDICTABLE>
  101810:	00200adc 	ldrdeq	r0, [r0], -ip	; <UNPREDICTABLE>
  101814:	00200a98 	mlaeq	r0, r8, sl, r0
  101818:	00200a9c 	mlaeq	r0, ip, sl, r0

0010181c <target_push>:
  10181c:	b5f3      	push	{r0, r1, r4, r5, r6, r7, lr}
  10181e:	9e08      	ldr	r6, [sp, #32]
  101820:	0609      	lsls	r1, r1, #24
  101822:	0e09      	lsrs	r1, r1, #24
  101824:	0614      	lsls	r4, r2, #24
  101826:	061d      	lsls	r5, r3, #24
  101828:	1c07      	adds	r7, r0, #0
  10182a:	9100      	str	r1, [sp, #0]
  10182c:	0e24      	lsrs	r4, r4, #24
  10182e:	0e2d      	lsrs	r5, r5, #24
  101830:	2e00      	cmp	r6, #0
  101832:	d101      	bne.n	101838 <target_push+0x1c>
  101834:	2000      	movs	r0, #0
  101836:	e066      	b.n	101906 <target_push+0xea>
  101838:	4b34      	ldr	r3, [pc, #208]	; (10190c <target_push+0xf0>)
  10183a:	006d      	lsls	r5, r5, #1
  10183c:	6018      	str	r0, [r3, #0]
  10183e:	f7ff ff97 	bl	101770 <validate_target>
  101842:	062b      	lsls	r3, r5, #24
  101844:	4d32      	ldr	r5, [pc, #200]	; (101910 <target_push+0xf4>)
  101846:	22fe      	movs	r2, #254	; 0xfe
  101848:	0e1b      	lsrs	r3, r3, #24
  10184a:	702a      	strb	r2, [r5, #0]
  10184c:	1c1a      	adds	r2, r3, #0
  10184e:	3212      	adds	r2, #18
  101850:	0612      	lsls	r2, r2, #24
  101852:	0e12      	lsrs	r2, r2, #24
  101854:	706a      	strb	r2, [r5, #1]
  101856:	2a40      	cmp	r2, #64	; 0x40
  101858:	d8ec      	bhi.n	101834 <target_push+0x18>
  10185a:	7e3a      	ldrb	r2, [r7, #24]
  10185c:	4668      	mov	r0, sp
  10185e:	7800      	ldrb	r0, [r0, #0]
  101860:	712a      	strb	r2, [r5, #4]
  101862:	716a      	strb	r2, [r5, #5]
  101864:	2203      	movs	r2, #3
  101866:	0c31      	lsrs	r1, r6, #16
  101868:	71aa      	strb	r2, [r5, #6]
  10186a:	220a      	movs	r2, #10
  10186c:	71ea      	strb	r2, [r5, #7]
  10186e:	7268      	strb	r0, [r5, #9]
  101870:	2200      	movs	r2, #0
  101872:	0a08      	lsrs	r0, r1, #8
  101874:	73e9      	strb	r1, [r5, #15]
  101876:	0a31      	lsrs	r1, r6, #8
  101878:	722a      	strb	r2, [r5, #8]
  10187a:	72aa      	strb	r2, [r5, #10]
  10187c:	72ec      	strb	r4, [r5, #11]
  10187e:	732a      	strb	r2, [r5, #12]
  101880:	736b      	strb	r3, [r5, #13]
  101882:	73a8      	strb	r0, [r5, #14]
  101884:	7429      	strb	r1, [r5, #16]
  101886:	746e      	strb	r6, [r5, #17]
  101888:	e009      	b.n	10189e <target_push+0x82>
  10188a:	9c09      	ldr	r4, [sp, #36]	; 0x24
  10188c:	6821      	ldr	r1, [r4, #0]
  10188e:	1d08      	adds	r0, r1, #4
  101890:	6020      	str	r0, [r4, #0]
  101892:	6808      	ldr	r0, [r1, #0]
  101894:	18a9      	adds	r1, r5, r2
  101896:	0a04      	lsrs	r4, r0, #8
  101898:	748c      	strb	r4, [r1, #18]
  10189a:	74c8      	strb	r0, [r1, #19]
  10189c:	3202      	adds	r2, #2
  10189e:	429a      	cmp	r2, r3
  1018a0:	dbf3      	blt.n	10188a <target_push+0x6e>
  1018a2:	3312      	adds	r3, #18
  1018a4:	18ed      	adds	r5, r5, r3
  1018a6:	4b1a      	ldr	r3, [pc, #104]	; (101910 <target_push+0xf4>)
  1018a8:	785a      	ldrb	r2, [r3, #1]
  1018aa:	2140      	movs	r1, #64	; 0x40
  1018ac:	1a8a      	subs	r2, r1, r2
  1018ae:	1c34      	adds	r4, r6, #0
  1018b0:	9807      	ldr	r0, [sp, #28]
  1018b2:	7801      	ldrb	r1, [r0, #0]
  1018b4:	3001      	adds	r0, #1
  1018b6:	7029      	strb	r1, [r5, #0]
  1018b8:	9007      	str	r0, [sp, #28]
  1018ba:	7859      	ldrb	r1, [r3, #1]
  1018bc:	3101      	adds	r1, #1
  1018be:	0609      	lsls	r1, r1, #24
  1018c0:	0e09      	lsrs	r1, r1, #24
  1018c2:	3c01      	subs	r4, #1
  1018c4:	3501      	adds	r5, #1
  1018c6:	7059      	strb	r1, [r3, #1]
  1018c8:	2c00      	cmp	r4, #0
  1018ca:	d002      	beq.n	1018d2 <target_push+0xb6>
  1018cc:	1910      	adds	r0, r2, r4
  1018ce:	42b0      	cmp	r0, r6
  1018d0:	d1ee      	bne.n	1018b0 <target_push+0x94>
  1018d2:	4d10      	ldr	r5, [pc, #64]	; (101914 <target_push+0xf8>)
  1018d4:	3904      	subs	r1, #4
  1018d6:	0409      	lsls	r1, r1, #16
  1018d8:	0c09      	lsrs	r1, r1, #16
  1018da:	1c28      	adds	r0, r5, #0
  1018dc:	f7ff f84a 	bl	100974 <checksum>
  1018e0:	1f2e      	subs	r6, r5, #4
  1018e2:	70b0      	strb	r0, [r6, #2]
  1018e4:	0a00      	lsrs	r0, r0, #8
  1018e6:	70f0      	strb	r0, [r6, #3]
  1018e8:	f7ff fd8a 	bl	101400 <fmr_broadcast>
  1018ec:	2c00      	cmp	r4, #0
  1018ee:	d003      	beq.n	1018f8 <target_push+0xdc>
  1018f0:	2304      	movs	r3, #4
  1018f2:	7073      	strb	r3, [r6, #1]
  1018f4:	1c26      	adds	r6, r4, #0
  1018f6:	e7d6      	b.n	1018a6 <target_push+0x8a>
  1018f8:	697b      	ldr	r3, [r7, #20]
  1018fa:	a801      	add	r0, sp, #4
  1018fc:	69db      	ldr	r3, [r3, #28]
  1018fe:	2104      	movs	r1, #4
  101900:	f000 f80a 	bl	101918 <target_push+0xfc>
  101904:	9801      	ldr	r0, [sp, #4]
  101906:	bcf6      	pop	{r1, r2, r4, r5, r6, r7}
  101908:	bc02      	pop	{r1}
  10190a:	4708      	bx	r1
  10190c:	00200ad8 	ldrdeq	r0, [r0], -r8	; <UNPREDICTABLE>
  101910:	00200a98 	mlaeq	r0, r8, sl, r0
  101914:	00200a9c 	mlaeq	r0, ip, sl, r0
  101918:	4718      	bx	r3
  10191a:	46c0      	nop			; (mov r8, r8)

0010191c <target_pull>:
  10191c:	b5f1      	push	{r0, r4, r5, r6, r7, lr}
  10191e:	1c07      	adds	r7, r0, #0
  101920:	9807      	ldr	r0, [sp, #28]
  101922:	060d      	lsls	r5, r1, #24
  101924:	0614      	lsls	r4, r2, #24
  101926:	061e      	lsls	r6, r3, #24
  101928:	0e2d      	lsrs	r5, r5, #24
  10192a:	0e24      	lsrs	r4, r4, #24
  10192c:	0e36      	lsrs	r6, r6, #24
  10192e:	2800      	cmp	r0, #0
  101930:	d101      	bne.n	101936 <target_pull+0x1a>
  101932:	2000      	movs	r0, #0
  101934:	e05e      	b.n	1019f4 <target_pull+0xd8>
  101936:	4b31      	ldr	r3, [pc, #196]	; (1019fc <target_pull+0xe0>)
  101938:	1c38      	adds	r0, r7, #0
  10193a:	0076      	lsls	r6, r6, #1
  10193c:	601f      	str	r7, [r3, #0]
  10193e:	0636      	lsls	r6, r6, #24
  101940:	f7ff ff16 	bl	101770 <validate_target>
  101944:	482e      	ldr	r0, [pc, #184]	; (101a00 <target_pull+0xe4>)
  101946:	23fe      	movs	r3, #254	; 0xfe
  101948:	0e36      	lsrs	r6, r6, #24
  10194a:	7003      	strb	r3, [r0, #0]
  10194c:	1c33      	adds	r3, r6, #0
  10194e:	3312      	adds	r3, #18
  101950:	061b      	lsls	r3, r3, #24
  101952:	0e1b      	lsrs	r3, r3, #24
  101954:	7043      	strb	r3, [r0, #1]
  101956:	2b40      	cmp	r3, #64	; 0x40
  101958:	d8eb      	bhi.n	101932 <target_pull+0x16>
  10195a:	7e3b      	ldrb	r3, [r7, #24]
  10195c:	72c4      	strb	r4, [r0, #11]
  10195e:	9c07      	ldr	r4, [sp, #28]
  101960:	7103      	strb	r3, [r0, #4]
  101962:	7143      	strb	r3, [r0, #5]
  101964:	2304      	movs	r3, #4
  101966:	0c22      	lsrs	r2, r4, #16
  101968:	7183      	strb	r3, [r0, #6]
  10196a:	230a      	movs	r3, #10
  10196c:	0a11      	lsrs	r1, r2, #8
  10196e:	71c3      	strb	r3, [r0, #7]
  101970:	73c2      	strb	r2, [r0, #15]
  101972:	2300      	movs	r3, #0
  101974:	0a22      	lsrs	r2, r4, #8
  101976:	7203      	strb	r3, [r0, #8]
  101978:	7245      	strb	r5, [r0, #9]
  10197a:	7283      	strb	r3, [r0, #10]
  10197c:	7303      	strb	r3, [r0, #12]
  10197e:	7346      	strb	r6, [r0, #13]
  101980:	7381      	strb	r1, [r0, #14]
  101982:	7402      	strb	r2, [r0, #16]
  101984:	7444      	strb	r4, [r0, #17]
  101986:	e009      	b.n	10199c <target_pull+0x80>
  101988:	9c08      	ldr	r4, [sp, #32]
  10198a:	6822      	ldr	r2, [r4, #0]
  10198c:	1d11      	adds	r1, r2, #4
  10198e:	6021      	str	r1, [r4, #0]
  101990:	6811      	ldr	r1, [r2, #0]
  101992:	181a      	adds	r2, r3, r0
  101994:	0a0c      	lsrs	r4, r1, #8
  101996:	7494      	strb	r4, [r2, #18]
  101998:	74d1      	strb	r1, [r2, #19]
  10199a:	3302      	adds	r3, #2
  10199c:	42b3      	cmp	r3, r6
  10199e:	dbf3      	blt.n	101988 <target_pull+0x6c>
  1019a0:	4d18      	ldr	r5, [pc, #96]	; (101a04 <target_pull+0xe8>)
  1019a2:	1f2c      	subs	r4, r5, #4
  1019a4:	7861      	ldrb	r1, [r4, #1]
  1019a6:	3904      	subs	r1, #4
  1019a8:	0409      	lsls	r1, r1, #16
  1019aa:	0c09      	lsrs	r1, r1, #16
  1019ac:	1c28      	adds	r0, r5, #0
  1019ae:	f7fe ffe1 	bl	100974 <checksum>
  1019b2:	70a0      	strb	r0, [r4, #2]
  1019b4:	0a00      	lsrs	r0, r0, #8
  1019b6:	70e0      	strb	r0, [r4, #3]
  1019b8:	f7ff fd22 	bl	101400 <fmr_broadcast>
  1019bc:	f7ff fd32 	bl	101424 <fmr_retrieve>
  1019c0:	9c06      	ldr	r4, [sp, #24]
  1019c2:	233c      	movs	r3, #60	; 0x3c
  1019c4:	782a      	ldrb	r2, [r5, #0]
  1019c6:	9806      	ldr	r0, [sp, #24]
  1019c8:	9907      	ldr	r1, [sp, #28]
  1019ca:	7022      	strb	r2, [r4, #0]
  1019cc:	3401      	adds	r4, #1
  1019ce:	1842      	adds	r2, r0, r1
  1019d0:	4294      	cmp	r4, r2
  1019d2:	d008      	beq.n	1019e6 <target_pull+0xca>
  1019d4:	3b01      	subs	r3, #1
  1019d6:	3501      	adds	r5, #1
  1019d8:	2b00      	cmp	r3, #0
  1019da:	d1f3      	bne.n	1019c4 <target_pull+0xa8>
  1019dc:	f7ff fd22 	bl	101424 <fmr_retrieve>
  1019e0:	233c      	movs	r3, #60	; 0x3c
  1019e2:	4d08      	ldr	r5, [pc, #32]	; (101a04 <target_pull+0xe8>)
  1019e4:	e7ee      	b.n	1019c4 <target_pull+0xa8>
  1019e6:	697b      	ldr	r3, [r7, #20]
  1019e8:	4668      	mov	r0, sp
  1019ea:	69db      	ldr	r3, [r3, #28]
  1019ec:	2104      	movs	r1, #4
  1019ee:	f000 f80b 	bl	101a08 <target_pull+0xec>
  1019f2:	9800      	ldr	r0, [sp, #0]
  1019f4:	bcf2      	pop	{r1, r4, r5, r6, r7}
  1019f6:	bc02      	pop	{r1}
  1019f8:	4708      	bx	r1
  1019fa:	46c0      	nop			; (mov r8, r8)
  1019fc:	00200ad8 	ldrdeq	r0, [r0], -r8	; <UNPREDICTABLE>
  101a00:	00200a98 	mlaeq	r0, r8, sl, r0
  101a04:	00200a9c 	mlaeq	r0, ip, sl, r0
  101a08:	4718      	bx	r3
  101a0a:	46c0      	nop			; (mov r8, r8)

00101a0c <fmr_configure>:
  101a0c:	4770      	bx	lr
  101a0e:	ffff b571 	vsli.32	<illegal reg q13.5>, <illegal reg q8.5>, #31

00101a10 <fmr_bind>:
  101a10:	b571      	push	{r0, r4, r5, r6, lr}
  101a12:	4e0f      	ldr	r6, [pc, #60]	; (101a50 <fmr_bind+0x40>)
  101a14:	8833      	ldrh	r3, [r6, #0]
  101a16:	0405      	lsls	r5, r0, #16
  101a18:	0c2d      	lsrs	r5, r5, #16
  101a1a:	42ab      	cmp	r3, r5
  101a1c:	d101      	bne.n	101a22 <fmr_bind+0x12>
  101a1e:	6870      	ldr	r0, [r6, #4]
  101a20:	e013      	b.n	101a4a <fmr_bind+0x3a>
  101a22:	1c28      	adds	r0, r5, #0
  101a24:	f7fe febc 	bl	1007a0 <fdl_load>
  101a28:	1e04      	subs	r4, r0, #0
  101a2a:	d107      	bne.n	101a3c <fmr_bind+0x2c>
  101a2c:	4b09      	ldr	r3, [pc, #36]	; (101a54 <fmr_bind+0x44>)
  101a2e:	1c20      	adds	r0, r4, #0
  101a30:	685b      	ldr	r3, [r3, #4]
  101a32:	f000 f811 	bl	101a58 <fmr_bind+0x48>
  101a36:	2001      	movs	r0, #1
  101a38:	4240      	negs	r0, r0
  101a3a:	e006      	b.n	101a4a <fmr_bind+0x3a>
  101a3c:	6822      	ldr	r2, [r4, #0]
  101a3e:	18a3      	adds	r3, r4, r2
  101a40:	f000 f80a 	bl	101a58 <fmr_bind+0x48>
  101a44:	8035      	strh	r5, [r6, #0]
  101a46:	6074      	str	r4, [r6, #4]
  101a48:	1c20      	adds	r0, r4, #0
  101a4a:	bc72      	pop	{r1, r4, r5, r6}
  101a4c:	bc02      	pop	{r1}
  101a4e:	4708      	bx	r1
  101a50:	00200ae0 	eoreq	r0, r0, r0, ror #21
  101a54:	00108dac 	andseq	r8, r0, ip, lsr #27
  101a58:	4718      	bx	r3
  101a5a:	46c0      	nop			; (mov r8, r8)

00101a5c <fmr_invoke>:
  101a5c:	b40c      	push	{r2, r3}
  101a5e:	b570      	push	{r4, r5, r6, lr}
  101a60:	9b04      	ldr	r3, [sp, #16]
  101a62:	061c      	lsls	r4, r3, #24
  101a64:	4b0b      	ldr	r3, [pc, #44]	; (101a94 <fmr_invoke+0x38>)
  101a66:	881a      	ldrh	r2, [r3, #0]
  101a68:	060d      	lsls	r5, r1, #24
  101a6a:	0e2d      	lsrs	r5, r5, #24
  101a6c:	0e24      	lsrs	r4, r4, #24
  101a6e:	4282      	cmp	r2, r0
  101a70:	d101      	bne.n	101a76 <fmr_invoke+0x1a>
  101a72:	685e      	ldr	r6, [r3, #4]
  101a74:	e003      	b.n	101a7e <fmr_invoke+0x22>
  101a76:	0400      	lsls	r0, r0, #16
  101a78:	0c00      	lsrs	r0, r0, #16
  101a7a:	f7ff ffc9 	bl	101a10 <fmr_bind>
  101a7e:	00ad      	lsls	r5, r5, #2
  101a80:	59a8      	ldr	r0, [r5, r6]
  101a82:	1c21      	adds	r1, r4, #0
  101a84:	1830      	adds	r0, r6, r0
  101a86:	4a04      	ldr	r2, [pc, #16]	; (101a98 <fmr_invoke+0x3c>)
  101a88:	f000 f80a 	bl	101aa0 <internal_call>
  101a8c:	bc70      	pop	{r4, r5, r6}
  101a8e:	bc08      	pop	{r3}
  101a90:	b002      	add	sp, #8
  101a92:	4718      	bx	r3
  101a94:	00200ae0 	eoreq	r0, r0, r0, ror #21
  101a98:	00200aac 	eoreq	r0, r0, ip, lsr #21

00101a9c <fmr_resolve>:
  101a9c:	2000      	movs	r0, #0
  101a9e:	4770      	bx	lr

00101aa0 <internal_call>:
  101aa0:	4684      	mov	ip, r0
  101aa2:	1c14      	adds	r4, r2, #0
  101aa4:	cc0f      	ldmia	r4!, {r0, r1, r2, r3}
  101aa6:	4760      	bx	ip

00101aa8 <fiq_handler>:
  101aa8:	4770      	bx	lr

00101aaa <default_handler>:
  101aaa:	4770      	bx	lr

00101aac <spurious_handler>:
  101aac:	4770      	bx	lr
  101aae:	ffff 4b1e 			; <UNDEFINED> instruction: 0xffff4b1e

00101ab0 <boot>:
  101ab0:	4b1e      	ldr	r3, [pc, #120]	; (101b2c <boot+0x7c>)
  101ab2:	2280      	movs	r2, #128	; 0x80
  101ab4:	0052      	lsls	r2, r2, #1
  101ab6:	661a      	str	r2, [r3, #96]	; 0x60
  101ab8:	4b1d      	ldr	r3, [pc, #116]	; (101b30 <boot+0x80>)
  101aba:	2280      	movs	r2, #128	; 0x80
  101abc:	0212      	lsls	r2, r2, #8
  101abe:	605a      	str	r2, [r3, #4]
  101ac0:	4a1c      	ldr	r2, [pc, #112]	; (101b34 <boot+0x84>)
  101ac2:	4b1d      	ldr	r3, [pc, #116]	; (101b38 <boot+0x88>)
  101ac4:	621a      	str	r2, [r3, #32]
  101ac6:	2201      	movs	r2, #1
  101ac8:	6e99      	ldr	r1, [r3, #104]	; 0x68
  101aca:	4211      	tst	r1, r2
  101acc:	d0fc      	beq.n	101ac8 <boot+0x18>
  101ace:	4a1a      	ldr	r2, [pc, #104]	; (101b38 <boot+0x88>)
  101ad0:	491a      	ldr	r1, [pc, #104]	; (101b3c <boot+0x8c>)
  101ad2:	62d1      	str	r1, [r2, #44]	; 0x2c
  101ad4:	2204      	movs	r2, #4
  101ad6:	6e99      	ldr	r1, [r3, #104]	; 0x68
  101ad8:	4211      	tst	r1, r2
  101ada:	d0fc      	beq.n	101ad6 <boot+0x26>
  101adc:	2108      	movs	r1, #8
  101ade:	6e98      	ldr	r0, [r3, #104]	; 0x68
  101ae0:	4a15      	ldr	r2, [pc, #84]	; (101b38 <boot+0x88>)
  101ae2:	4208      	tst	r0, r1
  101ae4:	d0fb      	beq.n	101ade <boot+0x2e>
  101ae6:	6b11      	ldr	r1, [r2, #48]	; 0x30
  101ae8:	2004      	movs	r0, #4
  101aea:	4301      	orrs	r1, r0
  101aec:	6311      	str	r1, [r2, #48]	; 0x30
  101aee:	2108      	movs	r1, #8
  101af0:	6e98      	ldr	r0, [r3, #104]	; 0x68
  101af2:	4a11      	ldr	r2, [pc, #68]	; (101b38 <boot+0x88>)
  101af4:	4208      	tst	r0, r1
  101af6:	d0fb      	beq.n	101af0 <boot+0x40>
  101af8:	6b11      	ldr	r1, [r2, #48]	; 0x30
  101afa:	2003      	movs	r0, #3
  101afc:	4301      	orrs	r1, r0
  101afe:	6311      	str	r1, [r2, #48]	; 0x30
  101b00:	2208      	movs	r2, #8
  101b02:	6e99      	ldr	r1, [r3, #104]	; 0x68
  101b04:	4211      	tst	r1, r2
  101b06:	d0fc      	beq.n	101b02 <boot+0x52>
  101b08:	4b0d      	ldr	r3, [pc, #52]	; (101b40 <boot+0x90>)
  101b0a:	4a0e      	ldr	r2, [pc, #56]	; (101b44 <boot+0x94>)
  101b0c:	480e      	ldr	r0, [pc, #56]	; (101b48 <boot+0x98>)
  101b0e:	67da      	str	r2, [r3, #124]	; 0x7c
  101b10:	4a0e      	ldr	r2, [pc, #56]	; (101b4c <boot+0x9c>)
  101b12:	2301      	movs	r3, #1
  101b14:	1c19      	adds	r1, r3, #0
  101b16:	3120      	adds	r1, #32
  101b18:	0089      	lsls	r1, r1, #2
  101b1a:	3301      	adds	r3, #1
  101b1c:	5088      	str	r0, [r1, r2]
  101b1e:	2b1f      	cmp	r3, #31
  101b20:	d1f8      	bne.n	101b14 <boot+0x64>
  101b22:	4b0b      	ldr	r3, [pc, #44]	; (101b50 <boot+0xa0>)
  101b24:	4a0b      	ldr	r2, [pc, #44]	; (101b54 <boot+0xa4>)
  101b26:	639a      	str	r2, [r3, #56]	; 0x38
  101b28:	4770      	bx	lr
  101b2a:	46c0      	nop			; (mov r8, r8)
  101b2c:	ffffff00 			; <UNDEFINED> instruction: 0xffffff00
  101b30:	fffffd40 			; <UNDEFINED> instruction: 0xfffffd40
  101b34:	00000601 	andeq	r0, r0, r1, lsl #12
  101b38:	fffffc00 			; <UNDEFINED> instruction: 0xfffffc00
  101b3c:	00481c0e 	subeq	r1, r8, lr, lsl #24
  101b40:	fffff004 			; <UNDEFINED> instruction: 0xfffff004
  101b44:	00101aa9 	andseq	r1, r0, r9, lsr #21
  101b48:	00101aab 	andseq	r1, r0, fp, lsr #21
  101b4c:	fffff000 			; <UNDEFINED> instruction: 0xfffff000
  101b50:	fffff0fc 			; <UNDEFINED> instruction: 0xfffff0fc
  101b54:	00101aad 	andseq	r1, r0, sp, lsr #21

00101b58 <usart_interrupt>:
  101b58:	b510      	push	{r4, lr}
  101b5a:	4b07      	ldr	r3, [pc, #28]	; (101b78 <usart_interrupt+0x20>)
  101b5c:	4c07      	ldr	r4, [pc, #28]	; (101b7c <usart_interrupt+0x24>)
  101b5e:	601c      	str	r4, [r3, #0]
  101b60:	f7ff fc60 	bl	101424 <fmr_retrieve>
  101b64:	1c20      	adds	r0, r4, #0
  101b66:	f7ff fc0f 	bl	101388 <fmr_parse>
  101b6a:	4b05      	ldr	r3, [pc, #20]	; (101b80 <usart_interrupt+0x28>)
  101b6c:	2280      	movs	r2, #128	; 0x80
  101b6e:	0052      	lsls	r2, r2, #1
  101b70:	601a      	str	r2, [r3, #0]
  101b72:	bc10      	pop	{r4}
  101b74:	bc01      	pop	{r0}
  101b76:	4700      	bx	r0
  101b78:	00200ad8 	ldrdeq	r0, [r0], -r8	; <UNPREDICTABLE>
  101b7c:	00200054 	eoreq	r0, r0, r4, asr r0
  101b80:	fffc0000 			; <UNDEFINED> instruction: 0xfffc0000

00101b84 <_delay_ms>:
  101b84:	2300      	movs	r3, #0
  101b86:	b081      	sub	sp, #4
  101b88:	9300      	str	r3, [sp, #0]
  101b8a:	4b05      	ldr	r3, [pc, #20]	; (101ba0 <_delay_ms+0x1c>)
  101b8c:	4358      	muls	r0, r3
  101b8e:	e002      	b.n	101b96 <_delay_ms+0x12>
  101b90:	9b00      	ldr	r3, [sp, #0]
  101b92:	3301      	adds	r3, #1
  101b94:	9300      	str	r3, [sp, #0]
  101b96:	9b00      	ldr	r3, [sp, #0]
  101b98:	4283      	cmp	r3, r0
  101b9a:	d3f9      	bcc.n	101b90 <_delay_ms+0xc>
  101b9c:	b001      	add	sp, #4
  101b9e:	4770      	bx	lr
  101ba0:	00001250 	andeq	r1, r0, r0, asr r2

00101ba4 <main>:
  101ba4:	b571      	push	{r0, r4, r5, r6, lr}
  101ba6:	201a      	movs	r0, #26
  101ba8:	f7ff fb10 	bl	1011cc <usart1_configure>
  101bac:	f7fe faae 	bl	10010c <at45_configure>
  101bb0:	f7ff f9ae 	bl	100f10 <spi_configure>
  101bb4:	f7ff f9da 	bl	100f6c <spi_enable>
  101bb8:	f7ff f870 	bl	100c9c <fs_configure>
  101bbc:	f7fe fddf 	bl	10077e <button_configure>
  101bc0:	f7ff f9a2 	bl	100f08 <led_configure>
  101bc4:	f7ff f970 	bl	100ea8 <io_configure>
  101bc8:	f7ff fa58 	bl	10107c <timer_configure>
  101bcc:	f7ff f99e 	bl	100f0c <pwm_configure>
  101bd0:	f7ff fb6c 	bl	1012ac <wifi_configure>
  101bd4:	f7ff f884 	bl	100ce0 <i2c_configure>
  101bd8:	f7fe fdd4 	bl	100784 <error_configure>
  101bdc:	f7fe fdd8 	bl	100790 <fdl_configure>
  101be0:	f7ff ff14 	bl	101a0c <fmr_configure>
  101be4:	201a      	movs	r0, #26
  101be6:	f7ff fa97 	bl	101118 <usart0_configure>
  101bea:	f7ff fb55 	bl	101298 <usb_configure>
  101bee:	4c18      	ldr	r4, [pc, #96]	; (101c50 <main+0xac>)
  101bf0:	1c20      	adds	r0, r4, #0
  101bf2:	f7ff fc63 	bl	1014bc <host_configure>
  101bf6:	1c20      	adds	r0, r4, #0
  101bf8:	f7ff fb5a 	bl	1012b0 <device_configure>
  101bfc:	4b15      	ldr	r3, [pc, #84]	; (101c54 <main+0xb0>)
  101bfe:	4816      	ldr	r0, [pc, #88]	; (101c58 <main+0xb4>)
  101c00:	4916      	ldr	r1, [pc, #88]	; (101c5c <main+0xb8>)
  101c02:	2240      	movs	r2, #64	; 0x40
  101c04:	629a      	str	r2, [r3, #40]	; 0x28
  101c06:	6008      	str	r0, [r1, #0]
  101c08:	4915      	ldr	r1, [pc, #84]	; (101c60 <main+0xbc>)
  101c0a:	2607      	movs	r6, #7
  101c0c:	618e      	str	r6, [r1, #24]
  101c0e:	4c15      	ldr	r4, [pc, #84]	; (101c64 <main+0xc0>)
  101c10:	62da      	str	r2, [r3, #44]	; 0x2c
  101c12:	625a      	str	r2, [r3, #36]	; 0x24
  101c14:	4b14      	ldr	r3, [pc, #80]	; (101c68 <main+0xc4>)
  101c16:	2501      	movs	r5, #1
  101c18:	609d      	str	r5, [r3, #8]
  101c1a:	1c30      	adds	r0, r6, #0
  101c1c:	6863      	ldr	r3, [r4, #4]
  101c1e:	1c29      	adds	r1, r5, #0
  101c20:	f000 f824 	bl	101c6c <main+0xc8>
  101c24:	68a4      	ldr	r4, [r4, #8]
  101c26:	1c30      	adds	r0, r6, #0
  101c28:	1c29      	adds	r1, r5, #0
  101c2a:	f000 f820 	bl	101c6e <main+0xca>
  101c2e:	2101      	movs	r1, #1
  101c30:	2007      	movs	r0, #7
  101c32:	f000 f81c 	bl	101c6e <main+0xca>
  101c36:	20fa      	movs	r0, #250	; 0xfa
  101c38:	0040      	lsls	r0, r0, #1
  101c3a:	f7ff ffa3 	bl	101b84 <_delay_ms>
  101c3e:	2007      	movs	r0, #7
  101c40:	2100      	movs	r1, #0
  101c42:	f000 f814 	bl	101c6e <main+0xca>
  101c46:	20fa      	movs	r0, #250	; 0xfa
  101c48:	0040      	lsls	r0, r0, #1
  101c4a:	f7ff ff9b 	bl	101b84 <_delay_ms>
  101c4e:	e7ee      	b.n	101c2e <main+0x8a>
  101c50:	00109110 	andseq	r9, r0, r0, lsl r1
  101c54:	fffff0fc 			; <UNDEFINED> instruction: 0xfffff0fc
  101c58:	00101b59 	andseq	r1, r0, r9, asr fp
  101c5c:	fffff098 			; <UNDEFINED> instruction: 0xfffff098
  101c60:	fffff000 			; <UNDEFINED> instruction: 0xfffff000
  101c64:	0010907c 	andseq	r9, r0, ip, ror r0
  101c68:	fffc0000 			; <UNDEFINED> instruction: 0xfffc0000
  101c6c:	4718      	bx	r3
  101c6e:	4720      	bx	r4

00101c70 <begin_scheduling>:
  101c70:	b580      	push	{r7, lr}
  101c72:	af00      	add	r7, sp, #0
  101c74:	e000      	b.n	101c78 <begin_scheduling+0x8>
  101c76:	46c0      	nop			; (mov r8, r8)
  101c78:	4b07      	ldr	r3, [pc, #28]	; (101c98 <begin_scheduling+0x28>)
  101c7a:	681a      	ldr	r2, [r3, #0]
  101c7c:	2380      	movs	r3, #128	; 0x80
  101c7e:	035b      	lsls	r3, r3, #13
  101c80:	429a      	cmp	r2, r3
  101c82:	d9f8      	bls.n	101c76 <begin_scheduling+0x6>
  101c84:	4b04      	ldr	r3, [pc, #16]	; (101c98 <begin_scheduling+0x28>)
  101c86:	681a      	ldr	r2, [r3, #0]
  101c88:	4b04      	ldr	r3, [pc, #16]	; (101c9c <begin_scheduling+0x2c>)
  101c8a:	429a      	cmp	r2, r3
  101c8c:	d8f3      	bhi.n	101c76 <begin_scheduling+0x6>
  101c8e:	4b02      	ldr	r3, [pc, #8]	; (101c98 <begin_scheduling+0x28>)
  101c90:	681b      	ldr	r3, [r3, #0]
  101c92:	f000 f805 	bl	101ca0 <begin_scheduling+0x30>
  101c96:	e7ee      	b.n	101c76 <begin_scheduling+0x6>
  101c98:	00200ae8 	eoreq	r0, r0, r8, ror #21
  101c9c:	0010ffff 			; <UNDEFINED> instruction: 0x0010ffff
  101ca0:	4718      	bx	r3
  101ca2:	46c0      	nop			; (mov r8, r8)

00101ca4 <__aeabi_uidiv>:
  101ca4:	2900      	cmp	r1, #0
  101ca6:	d034      	beq.n	101d12 <.udivsi3_skip_div0_test+0x6a>

00101ca8 <.udivsi3_skip_div0_test>:
  101ca8:	2301      	movs	r3, #1
  101caa:	2200      	movs	r2, #0
  101cac:	b410      	push	{r4}
  101cae:	4288      	cmp	r0, r1
  101cb0:	d32c      	bcc.n	101d0c <.udivsi3_skip_div0_test+0x64>
  101cb2:	2401      	movs	r4, #1
  101cb4:	0724      	lsls	r4, r4, #28
  101cb6:	42a1      	cmp	r1, r4
  101cb8:	d204      	bcs.n	101cc4 <.udivsi3_skip_div0_test+0x1c>
  101cba:	4281      	cmp	r1, r0
  101cbc:	d202      	bcs.n	101cc4 <.udivsi3_skip_div0_test+0x1c>
  101cbe:	0109      	lsls	r1, r1, #4
  101cc0:	011b      	lsls	r3, r3, #4
  101cc2:	e7f8      	b.n	101cb6 <.udivsi3_skip_div0_test+0xe>
  101cc4:	00e4      	lsls	r4, r4, #3
  101cc6:	42a1      	cmp	r1, r4
  101cc8:	d204      	bcs.n	101cd4 <.udivsi3_skip_div0_test+0x2c>
  101cca:	4281      	cmp	r1, r0
  101ccc:	d202      	bcs.n	101cd4 <.udivsi3_skip_div0_test+0x2c>
  101cce:	0049      	lsls	r1, r1, #1
  101cd0:	005b      	lsls	r3, r3, #1
  101cd2:	e7f8      	b.n	101cc6 <.udivsi3_skip_div0_test+0x1e>
  101cd4:	4288      	cmp	r0, r1
  101cd6:	d301      	bcc.n	101cdc <.udivsi3_skip_div0_test+0x34>
  101cd8:	1a40      	subs	r0, r0, r1
  101cda:	431a      	orrs	r2, r3
  101cdc:	084c      	lsrs	r4, r1, #1
  101cde:	42a0      	cmp	r0, r4
  101ce0:	d302      	bcc.n	101ce8 <.udivsi3_skip_div0_test+0x40>
  101ce2:	1b00      	subs	r0, r0, r4
  101ce4:	085c      	lsrs	r4, r3, #1
  101ce6:	4322      	orrs	r2, r4
  101ce8:	088c      	lsrs	r4, r1, #2
  101cea:	42a0      	cmp	r0, r4
  101cec:	d302      	bcc.n	101cf4 <.udivsi3_skip_div0_test+0x4c>
  101cee:	1b00      	subs	r0, r0, r4
  101cf0:	089c      	lsrs	r4, r3, #2
  101cf2:	4322      	orrs	r2, r4
  101cf4:	08cc      	lsrs	r4, r1, #3
  101cf6:	42a0      	cmp	r0, r4
  101cf8:	d302      	bcc.n	101d00 <.udivsi3_skip_div0_test+0x58>
  101cfa:	1b00      	subs	r0, r0, r4
  101cfc:	08dc      	lsrs	r4, r3, #3
  101cfe:	4322      	orrs	r2, r4
  101d00:	2800      	cmp	r0, #0
  101d02:	d003      	beq.n	101d0c <.udivsi3_skip_div0_test+0x64>
  101d04:	091b      	lsrs	r3, r3, #4
  101d06:	d001      	beq.n	101d0c <.udivsi3_skip_div0_test+0x64>
  101d08:	0909      	lsrs	r1, r1, #4
  101d0a:	e7e3      	b.n	101cd4 <.udivsi3_skip_div0_test+0x2c>
  101d0c:	1c10      	adds	r0, r2, #0
  101d0e:	bc10      	pop	{r4}
  101d10:	4770      	bx	lr
  101d12:	b502      	push	{r1, lr}
  101d14:	f000 f872 	bl	101dfc <__div0>
  101d18:	2000      	movs	r0, #0
  101d1a:	bc06      	pop	{r1, r2}
  101d1c:	4710      	bx	r2
  101d1e:	46c0      	nop			; (mov r8, r8)

00101d20 <__aeabi_uidivmod>:
  101d20:	2900      	cmp	r1, #0
  101d22:	d0f6      	beq.n	101d12 <.udivsi3_skip_div0_test+0x6a>
  101d24:	b503      	push	{r0, r1, lr}
  101d26:	f7ff ffbf 	bl	101ca8 <.udivsi3_skip_div0_test>
  101d2a:	bc0e      	pop	{r1, r2, r3}
  101d2c:	4342      	muls	r2, r0
  101d2e:	1a89      	subs	r1, r1, r2
  101d30:	4718      	bx	r3
  101d32:	46c0      	nop			; (mov r8, r8)

00101d34 <__umodsi3>:
  101d34:	2900      	cmp	r1, #0
  101d36:	d05a      	beq.n	101dee <__umodsi3+0xba>
  101d38:	2301      	movs	r3, #1
  101d3a:	4288      	cmp	r0, r1
  101d3c:	d200      	bcs.n	101d40 <__umodsi3+0xc>
  101d3e:	4770      	bx	lr
  101d40:	b410      	push	{r4}
  101d42:	2401      	movs	r4, #1
  101d44:	0724      	lsls	r4, r4, #28
  101d46:	42a1      	cmp	r1, r4
  101d48:	d204      	bcs.n	101d54 <__umodsi3+0x20>
  101d4a:	4281      	cmp	r1, r0
  101d4c:	d202      	bcs.n	101d54 <__umodsi3+0x20>
  101d4e:	0109      	lsls	r1, r1, #4
  101d50:	011b      	lsls	r3, r3, #4
  101d52:	e7f8      	b.n	101d46 <__umodsi3+0x12>
  101d54:	00e4      	lsls	r4, r4, #3
  101d56:	42a1      	cmp	r1, r4
  101d58:	d204      	bcs.n	101d64 <__umodsi3+0x30>
  101d5a:	4281      	cmp	r1, r0
  101d5c:	d202      	bcs.n	101d64 <__umodsi3+0x30>
  101d5e:	0049      	lsls	r1, r1, #1
  101d60:	005b      	lsls	r3, r3, #1
  101d62:	e7f8      	b.n	101d56 <__umodsi3+0x22>
  101d64:	2200      	movs	r2, #0
  101d66:	4288      	cmp	r0, r1
  101d68:	d300      	bcc.n	101d6c <__umodsi3+0x38>
  101d6a:	1a40      	subs	r0, r0, r1
  101d6c:	084c      	lsrs	r4, r1, #1
  101d6e:	42a0      	cmp	r0, r4
  101d70:	d305      	bcc.n	101d7e <__umodsi3+0x4a>
  101d72:	1b00      	subs	r0, r0, r4
  101d74:	469c      	mov	ip, r3
  101d76:	2401      	movs	r4, #1
  101d78:	41e3      	rors	r3, r4
  101d7a:	431a      	orrs	r2, r3
  101d7c:	4663      	mov	r3, ip
  101d7e:	088c      	lsrs	r4, r1, #2
  101d80:	42a0      	cmp	r0, r4
  101d82:	d305      	bcc.n	101d90 <__umodsi3+0x5c>
  101d84:	1b00      	subs	r0, r0, r4
  101d86:	469c      	mov	ip, r3
  101d88:	2402      	movs	r4, #2
  101d8a:	41e3      	rors	r3, r4
  101d8c:	431a      	orrs	r2, r3
  101d8e:	4663      	mov	r3, ip
  101d90:	08cc      	lsrs	r4, r1, #3
  101d92:	42a0      	cmp	r0, r4
  101d94:	d305      	bcc.n	101da2 <__umodsi3+0x6e>
  101d96:	1b00      	subs	r0, r0, r4
  101d98:	469c      	mov	ip, r3
  101d9a:	2403      	movs	r4, #3
  101d9c:	41e3      	rors	r3, r4
  101d9e:	431a      	orrs	r2, r3
  101da0:	4663      	mov	r3, ip
  101da2:	469c      	mov	ip, r3
  101da4:	2800      	cmp	r0, #0
  101da6:	d003      	beq.n	101db0 <__umodsi3+0x7c>
  101da8:	091b      	lsrs	r3, r3, #4
  101daa:	d001      	beq.n	101db0 <__umodsi3+0x7c>
  101dac:	0909      	lsrs	r1, r1, #4
  101dae:	e7d9      	b.n	101d64 <__umodsi3+0x30>
  101db0:	240e      	movs	r4, #14
  101db2:	0724      	lsls	r4, r4, #28
  101db4:	4022      	ands	r2, r4
  101db6:	d018      	beq.n	101dea <__umodsi3+0xb6>
  101db8:	4663      	mov	r3, ip
  101dba:	2407      	movs	r4, #7
  101dbc:	4223      	tst	r3, r4
  101dbe:	d014      	beq.n	101dea <__umodsi3+0xb6>
  101dc0:	4663      	mov	r3, ip
  101dc2:	2403      	movs	r4, #3
  101dc4:	41e3      	rors	r3, r4
  101dc6:	421a      	tst	r2, r3
  101dc8:	d001      	beq.n	101dce <__umodsi3+0x9a>
  101dca:	08cc      	lsrs	r4, r1, #3
  101dcc:	1900      	adds	r0, r0, r4
  101dce:	4663      	mov	r3, ip
  101dd0:	2402      	movs	r4, #2
  101dd2:	41e3      	rors	r3, r4
  101dd4:	421a      	tst	r2, r3
  101dd6:	d001      	beq.n	101ddc <__umodsi3+0xa8>
  101dd8:	088c      	lsrs	r4, r1, #2
  101dda:	1900      	adds	r0, r0, r4
  101ddc:	4663      	mov	r3, ip
  101dde:	2401      	movs	r4, #1
  101de0:	41e3      	rors	r3, r4
  101de2:	421a      	tst	r2, r3
  101de4:	d001      	beq.n	101dea <__umodsi3+0xb6>
  101de6:	084c      	lsrs	r4, r1, #1
  101de8:	1900      	adds	r0, r0, r4
  101dea:	bc10      	pop	{r4}
  101dec:	4770      	bx	lr
  101dee:	b502      	push	{r1, lr}
  101df0:	f000 f804 	bl	101dfc <__div0>
  101df4:	2000      	movs	r0, #0
  101df6:	bc06      	pop	{r1, r2}
  101df8:	4710      	bx	r2
  101dfa:	46c0      	nop			; (mov r8, r8)

00101dfc <__div0>:
  101dfc:	4770      	bx	lr
  101dfe:	46c0      	nop			; (mov r8, r8)

00101e00 <exit>:
  101e00:	b510      	push	{r4, lr}
  101e02:	2100      	movs	r1, #0
  101e04:	1c04      	adds	r4, r0, #0
  101e06:	f002 fce5 	bl	1047d4 <__call_exitprocs>
  101e0a:	4b05      	ldr	r3, [pc, #20]	; (101e20 <exit+0x20>)
  101e0c:	6818      	ldr	r0, [r3, #0]
  101e0e:	6bc3      	ldr	r3, [r0, #60]	; 0x3c
  101e10:	2b00      	cmp	r3, #0
  101e12:	d001      	beq.n	101e18 <exit+0x18>
  101e14:	f000 f806 	bl	101e24 <exit+0x24>
  101e18:	1c20      	adds	r0, r4, #0
  101e1a:	f001 fbc7 	bl	1035ac <_exit>
  101e1e:	46c0      	nop			; (mov r8, r8)
  101e20:	001091b4 			; <UNDEFINED> instruction: 0x001091b4
  101e24:	4718      	bx	r3
  101e26:	46c0      	nop			; (mov r8, r8)

00101e28 <malloc>:
  101e28:	b500      	push	{lr}
  101e2a:	4b03      	ldr	r3, [pc, #12]	; (101e38 <malloc+0x10>)
  101e2c:	1c01      	adds	r1, r0, #0
  101e2e:	6818      	ldr	r0, [r3, #0]
  101e30:	f000 f80e 	bl	101e50 <_malloc_r>
  101e34:	bd00      	pop	{pc}
  101e36:	46c0      	nop			; (mov r8, r8)
  101e38:	002000a0 	eoreq	r0, r0, r0, lsr #1

00101e3c <free>:
  101e3c:	b500      	push	{lr}
  101e3e:	4b03      	ldr	r3, [pc, #12]	; (101e4c <free+0x10>)
  101e40:	1c01      	adds	r1, r0, #0
  101e42:	6818      	ldr	r0, [r3, #0]
  101e44:	f003 fd66 	bl	105914 <_free_r>
  101e48:	bd00      	pop	{pc}
  101e4a:	46c0      	nop			; (mov r8, r8)
  101e4c:	002000a0 	eoreq	r0, r0, r0, lsr #1

00101e50 <_malloc_r>:
  101e50:	b5f7      	push	{r0, r1, r2, r4, r5, r6, r7, lr}
  101e52:	1c0b      	adds	r3, r1, #0
  101e54:	330b      	adds	r3, #11
  101e56:	9001      	str	r0, [sp, #4]
  101e58:	2610      	movs	r6, #16
  101e5a:	2b16      	cmp	r3, #22
  101e5c:	d902      	bls.n	101e64 <_malloc_r+0x14>
  101e5e:	2207      	movs	r2, #7
  101e60:	1c1e      	adds	r6, r3, #0
  101e62:	4396      	bics	r6, r2
  101e64:	2e00      	cmp	r6, #0
  101e66:	db01      	blt.n	101e6c <_malloc_r+0x1c>
  101e68:	428e      	cmp	r6, r1
  101e6a:	d203      	bcs.n	101e74 <_malloc_r+0x24>
  101e6c:	9c01      	ldr	r4, [sp, #4]
  101e6e:	230c      	movs	r3, #12
  101e70:	6023      	str	r3, [r4, #0]
  101e72:	e1d6      	b.n	102222 <_malloc_r+0x3d2>
  101e74:	9801      	ldr	r0, [sp, #4]
  101e76:	f000 fa14 	bl	1022a2 <__malloc_lock>
  101e7a:	4bb7      	ldr	r3, [pc, #732]	; (102158 <_malloc_r+0x308>)
  101e7c:	4ab7      	ldr	r2, [pc, #732]	; (10215c <_malloc_r+0x30c>)
  101e7e:	429e      	cmp	r6, r3
  101e80:	d814      	bhi.n	101eac <_malloc_r+0x5c>
  101e82:	08f7      	lsrs	r7, r6, #3
  101e84:	00fb      	lsls	r3, r7, #3
  101e86:	18d2      	adds	r2, r2, r3
  101e88:	68d4      	ldr	r4, [r2, #12]
  101e8a:	4294      	cmp	r4, r2
  101e8c:	d105      	bne.n	101e9a <_malloc_r+0x4a>
  101e8e:	1c23      	adds	r3, r4, #0
  101e90:	6964      	ldr	r4, [r4, #20]
  101e92:	3308      	adds	r3, #8
  101e94:	3702      	adds	r7, #2
  101e96:	429c      	cmp	r4, r3
  101e98:	d043      	beq.n	101f22 <_malloc_r+0xd2>
  101e9a:	6861      	ldr	r1, [r4, #4]
  101e9c:	2303      	movs	r3, #3
  101e9e:	4399      	bics	r1, r3
  101ea0:	68e2      	ldr	r2, [r4, #12]
  101ea2:	68a3      	ldr	r3, [r4, #8]
  101ea4:	60da      	str	r2, [r3, #12]
  101ea6:	6093      	str	r3, [r2, #8]
  101ea8:	1863      	adds	r3, r4, r1
  101eaa:	e058      	b.n	101f5e <_malloc_r+0x10e>
  101eac:	0a73      	lsrs	r3, r6, #9
  101eae:	08f7      	lsrs	r7, r6, #3
  101eb0:	2b00      	cmp	r3, #0
  101eb2:	d01b      	beq.n	101eec <_malloc_r+0x9c>
  101eb4:	2b04      	cmp	r3, #4
  101eb6:	d802      	bhi.n	101ebe <_malloc_r+0x6e>
  101eb8:	09b7      	lsrs	r7, r6, #6
  101eba:	3738      	adds	r7, #56	; 0x38
  101ebc:	e016      	b.n	101eec <_malloc_r+0x9c>
  101ebe:	2b14      	cmp	r3, #20
  101ec0:	d802      	bhi.n	101ec8 <_malloc_r+0x78>
  101ec2:	1c1f      	adds	r7, r3, #0
  101ec4:	375b      	adds	r7, #91	; 0x5b
  101ec6:	e011      	b.n	101eec <_malloc_r+0x9c>
  101ec8:	2b54      	cmp	r3, #84	; 0x54
  101eca:	d802      	bhi.n	101ed2 <_malloc_r+0x82>
  101ecc:	0b37      	lsrs	r7, r6, #12
  101ece:	376e      	adds	r7, #110	; 0x6e
  101ed0:	e00c      	b.n	101eec <_malloc_r+0x9c>
  101ed2:	21aa      	movs	r1, #170	; 0xaa
  101ed4:	0049      	lsls	r1, r1, #1
  101ed6:	428b      	cmp	r3, r1
  101ed8:	d802      	bhi.n	101ee0 <_malloc_r+0x90>
  101eda:	0bf7      	lsrs	r7, r6, #15
  101edc:	3777      	adds	r7, #119	; 0x77
  101ede:	e005      	b.n	101eec <_malloc_r+0x9c>
  101ee0:	499f      	ldr	r1, [pc, #636]	; (102160 <_malloc_r+0x310>)
  101ee2:	277e      	movs	r7, #126	; 0x7e
  101ee4:	428b      	cmp	r3, r1
  101ee6:	d801      	bhi.n	101eec <_malloc_r+0x9c>
  101ee8:	0cb7      	lsrs	r7, r6, #18
  101eea:	377c      	adds	r7, #124	; 0x7c
  101eec:	00fb      	lsls	r3, r7, #3
  101eee:	18d3      	adds	r3, r2, r3
  101ef0:	68dc      	ldr	r4, [r3, #12]
  101ef2:	2003      	movs	r0, #3
  101ef4:	e012      	b.n	101f1c <_malloc_r+0xcc>
  101ef6:	6862      	ldr	r2, [r4, #4]
  101ef8:	4382      	bics	r2, r0
  101efa:	1b91      	subs	r1, r2, r6
  101efc:	290f      	cmp	r1, #15
  101efe:	dd01      	ble.n	101f04 <_malloc_r+0xb4>
  101f00:	3f01      	subs	r7, #1
  101f02:	e00d      	b.n	101f20 <_malloc_r+0xd0>
  101f04:	2900      	cmp	r1, #0
  101f06:	db08      	blt.n	101f1a <_malloc_r+0xca>
  101f08:	68a3      	ldr	r3, [r4, #8]
  101f0a:	68e1      	ldr	r1, [r4, #12]
  101f0c:	60d9      	str	r1, [r3, #12]
  101f0e:	608b      	str	r3, [r1, #8]
  101f10:	18a3      	adds	r3, r4, r2
  101f12:	6858      	ldr	r0, [r3, #4]
  101f14:	2201      	movs	r2, #1
  101f16:	4302      	orrs	r2, r0
  101f18:	e024      	b.n	101f64 <_malloc_r+0x114>
  101f1a:	68e4      	ldr	r4, [r4, #12]
  101f1c:	429c      	cmp	r4, r3
  101f1e:	d1ea      	bne.n	101ef6 <_malloc_r+0xa6>
  101f20:	3701      	adds	r7, #1
  101f22:	4a8e      	ldr	r2, [pc, #568]	; (10215c <_malloc_r+0x30c>)
  101f24:	1c10      	adds	r0, r2, #0
  101f26:	6914      	ldr	r4, [r2, #16]
  101f28:	3008      	adds	r0, #8
  101f2a:	4284      	cmp	r4, r0
  101f2c:	d06d      	beq.n	10200a <_malloc_r+0x1ba>
  101f2e:	6861      	ldr	r1, [r4, #4]
  101f30:	2303      	movs	r3, #3
  101f32:	4399      	bics	r1, r3
  101f34:	1c0b      	adds	r3, r1, #0
  101f36:	1b89      	subs	r1, r1, r6
  101f38:	290f      	cmp	r1, #15
  101f3a:	dd0b      	ble.n	101f54 <_malloc_r+0x104>
  101f3c:	2501      	movs	r5, #1
  101f3e:	19a3      	adds	r3, r4, r6
  101f40:	432e      	orrs	r6, r5
  101f42:	430d      	orrs	r5, r1
  101f44:	6066      	str	r6, [r4, #4]
  101f46:	6153      	str	r3, [r2, #20]
  101f48:	6113      	str	r3, [r2, #16]
  101f4a:	60d8      	str	r0, [r3, #12]
  101f4c:	6098      	str	r0, [r3, #8]
  101f4e:	605d      	str	r5, [r3, #4]
  101f50:	5059      	str	r1, [r3, r1]
  101f52:	e172      	b.n	10223a <_malloc_r+0x3ea>
  101f54:	6150      	str	r0, [r2, #20]
  101f56:	6110      	str	r0, [r2, #16]
  101f58:	2900      	cmp	r1, #0
  101f5a:	db05      	blt.n	101f68 <_malloc_r+0x118>
  101f5c:	18e3      	adds	r3, r4, r3
  101f5e:	685d      	ldr	r5, [r3, #4]
  101f60:	2201      	movs	r2, #1
  101f62:	432a      	orrs	r2, r5
  101f64:	605a      	str	r2, [r3, #4]
  101f66:	e168      	b.n	10223a <_malloc_r+0x3ea>
  101f68:	497e      	ldr	r1, [pc, #504]	; (102164 <_malloc_r+0x314>)
  101f6a:	428b      	cmp	r3, r1
  101f6c:	d80f      	bhi.n	101f8e <_malloc_r+0x13e>
  101f6e:	08db      	lsrs	r3, r3, #3
  101f70:	1099      	asrs	r1, r3, #2
  101f72:	2001      	movs	r0, #1
  101f74:	4088      	lsls	r0, r1
  101f76:	1c01      	adds	r1, r0, #0
  101f78:	6850      	ldr	r0, [r2, #4]
  101f7a:	00db      	lsls	r3, r3, #3
  101f7c:	4301      	orrs	r1, r0
  101f7e:	6051      	str	r1, [r2, #4]
  101f80:	18d2      	adds	r2, r2, r3
  101f82:	6893      	ldr	r3, [r2, #8]
  101f84:	60e2      	str	r2, [r4, #12]
  101f86:	60a3      	str	r3, [r4, #8]
  101f88:	60dc      	str	r4, [r3, #12]
  101f8a:	6094      	str	r4, [r2, #8]
  101f8c:	e03d      	b.n	10200a <_malloc_r+0x1ba>
  101f8e:	0a5a      	lsrs	r2, r3, #9
  101f90:	2a04      	cmp	r2, #4
  101f92:	d802      	bhi.n	101f9a <_malloc_r+0x14a>
  101f94:	0999      	lsrs	r1, r3, #6
  101f96:	3138      	adds	r1, #56	; 0x38
  101f98:	e016      	b.n	101fc8 <_malloc_r+0x178>
  101f9a:	2a14      	cmp	r2, #20
  101f9c:	d802      	bhi.n	101fa4 <_malloc_r+0x154>
  101f9e:	1c11      	adds	r1, r2, #0
  101fa0:	315b      	adds	r1, #91	; 0x5b
  101fa2:	e011      	b.n	101fc8 <_malloc_r+0x178>
  101fa4:	2a54      	cmp	r2, #84	; 0x54
  101fa6:	d802      	bhi.n	101fae <_malloc_r+0x15e>
  101fa8:	0b19      	lsrs	r1, r3, #12
  101faa:	316e      	adds	r1, #110	; 0x6e
  101fac:	e00c      	b.n	101fc8 <_malloc_r+0x178>
  101fae:	21aa      	movs	r1, #170	; 0xaa
  101fb0:	0049      	lsls	r1, r1, #1
  101fb2:	428a      	cmp	r2, r1
  101fb4:	d802      	bhi.n	101fbc <_malloc_r+0x16c>
  101fb6:	0bd9      	lsrs	r1, r3, #15
  101fb8:	3177      	adds	r1, #119	; 0x77
  101fba:	e005      	b.n	101fc8 <_malloc_r+0x178>
  101fbc:	4868      	ldr	r0, [pc, #416]	; (102160 <_malloc_r+0x310>)
  101fbe:	217e      	movs	r1, #126	; 0x7e
  101fc0:	4282      	cmp	r2, r0
  101fc2:	d801      	bhi.n	101fc8 <_malloc_r+0x178>
  101fc4:	0c99      	lsrs	r1, r3, #18
  101fc6:	317c      	adds	r1, #124	; 0x7c
  101fc8:	4d64      	ldr	r5, [pc, #400]	; (10215c <_malloc_r+0x30c>)
  101fca:	00c8      	lsls	r0, r1, #3
  101fcc:	1828      	adds	r0, r5, r0
  101fce:	9000      	str	r0, [sp, #0]
  101fd0:	6882      	ldr	r2, [r0, #8]
  101fd2:	2003      	movs	r0, #3
  101fd4:	4684      	mov	ip, r0
  101fd6:	9800      	ldr	r0, [sp, #0]
  101fd8:	4282      	cmp	r2, r0
  101fda:	d10c      	bne.n	101ff6 <_malloc_r+0x1a6>
  101fdc:	1089      	asrs	r1, r1, #2
  101fde:	2301      	movs	r3, #1
  101fe0:	408b      	lsls	r3, r1
  101fe2:	1c19      	adds	r1, r3, #0
  101fe4:	686b      	ldr	r3, [r5, #4]
  101fe6:	4319      	orrs	r1, r3
  101fe8:	6069      	str	r1, [r5, #4]
  101fea:	1c13      	adds	r3, r2, #0
  101fec:	e009      	b.n	102002 <_malloc_r+0x1b2>
  101fee:	6892      	ldr	r2, [r2, #8]
  101ff0:	9d00      	ldr	r5, [sp, #0]
  101ff2:	42aa      	cmp	r2, r5
  101ff4:	d004      	beq.n	102000 <_malloc_r+0x1b0>
  101ff6:	6851      	ldr	r1, [r2, #4]
  101ff8:	4660      	mov	r0, ip
  101ffa:	4381      	bics	r1, r0
  101ffc:	428b      	cmp	r3, r1
  101ffe:	d3f6      	bcc.n	101fee <_malloc_r+0x19e>
  102000:	68d3      	ldr	r3, [r2, #12]
  102002:	60e3      	str	r3, [r4, #12]
  102004:	60a2      	str	r2, [r4, #8]
  102006:	60d4      	str	r4, [r2, #12]
  102008:	609c      	str	r4, [r3, #8]
  10200a:	10bb      	asrs	r3, r7, #2
  10200c:	2201      	movs	r2, #1
  10200e:	409a      	lsls	r2, r3
  102010:	1c13      	adds	r3, r2, #0
  102012:	4a52      	ldr	r2, [pc, #328]	; (10215c <_malloc_r+0x30c>)
  102014:	6852      	ldr	r2, [r2, #4]
  102016:	4293      	cmp	r3, r2
  102018:	d85d      	bhi.n	1020d6 <_malloc_r+0x286>
  10201a:	421a      	tst	r2, r3
  10201c:	d105      	bne.n	10202a <_malloc_r+0x1da>
  10201e:	2103      	movs	r1, #3
  102020:	438f      	bics	r7, r1
  102022:	005b      	lsls	r3, r3, #1
  102024:	3704      	adds	r7, #4
  102026:	421a      	tst	r2, r3
  102028:	d0fb      	beq.n	102022 <_malloc_r+0x1d2>
  10202a:	484c      	ldr	r0, [pc, #304]	; (10215c <_malloc_r+0x30c>)
  10202c:	494b      	ldr	r1, [pc, #300]	; (10215c <_malloc_r+0x30c>)
  10202e:	00fa      	lsls	r2, r7, #3
  102030:	1889      	adds	r1, r1, r2
  102032:	9702      	str	r7, [sp, #8]
  102034:	468c      	mov	ip, r1
  102036:	68cc      	ldr	r4, [r1, #12]
  102038:	e027      	b.n	10208a <_malloc_r+0x23a>
  10203a:	6862      	ldr	r2, [r4, #4]
  10203c:	2503      	movs	r5, #3
  10203e:	43aa      	bics	r2, r5
  102040:	9200      	str	r2, [sp, #0]
  102042:	1b92      	subs	r2, r2, r6
  102044:	2a0f      	cmp	r2, #15
  102046:	dd12      	ble.n	10206e <_malloc_r+0x21e>
  102048:	2001      	movs	r0, #1
  10204a:	1c01      	adds	r1, r0, #0
  10204c:	4331      	orrs	r1, r6
  10204e:	68e5      	ldr	r5, [r4, #12]
  102050:	6061      	str	r1, [r4, #4]
  102052:	68a1      	ldr	r1, [r4, #8]
  102054:	60a9      	str	r1, [r5, #8]
  102056:	60cd      	str	r5, [r1, #12]
  102058:	4940      	ldr	r1, [pc, #256]	; (10215c <_malloc_r+0x30c>)
  10205a:	19a3      	adds	r3, r4, r6
  10205c:	614b      	str	r3, [r1, #20]
  10205e:	610b      	str	r3, [r1, #16]
  102060:	4310      	orrs	r0, r2
  102062:	3108      	adds	r1, #8
  102064:	60d9      	str	r1, [r3, #12]
  102066:	6099      	str	r1, [r3, #8]
  102068:	6058      	str	r0, [r3, #4]
  10206a:	509a      	str	r2, [r3, r2]
  10206c:	e0e5      	b.n	10223a <_malloc_r+0x3ea>
  10206e:	2a00      	cmp	r2, #0
  102070:	db0a      	blt.n	102088 <_malloc_r+0x238>
  102072:	9800      	ldr	r0, [sp, #0]
  102074:	1825      	adds	r5, r4, r0
  102076:	6869      	ldr	r1, [r5, #4]
  102078:	2301      	movs	r3, #1
  10207a:	430b      	orrs	r3, r1
  10207c:	68e2      	ldr	r2, [r4, #12]
  10207e:	606b      	str	r3, [r5, #4]
  102080:	68a3      	ldr	r3, [r4, #8]
  102082:	60da      	str	r2, [r3, #12]
  102084:	6093      	str	r3, [r2, #8]
  102086:	e0d8      	b.n	10223a <_malloc_r+0x3ea>
  102088:	68e4      	ldr	r4, [r4, #12]
  10208a:	428c      	cmp	r4, r1
  10208c:	d1d5      	bne.n	10203a <_malloc_r+0x1ea>
  10208e:	9a02      	ldr	r2, [sp, #8]
  102090:	1c21      	adds	r1, r4, #0
  102092:	3201      	adds	r2, #1
  102094:	2403      	movs	r4, #3
  102096:	3108      	adds	r1, #8
  102098:	9202      	str	r2, [sp, #8]
  10209a:	4222      	tst	r2, r4
  10209c:	d1cb      	bne.n	102036 <_malloc_r+0x1e6>
  10209e:	4662      	mov	r2, ip
  1020a0:	2503      	movs	r5, #3
  1020a2:	422f      	tst	r7, r5
  1020a4:	d103      	bne.n	1020ae <_malloc_r+0x25e>
  1020a6:	6842      	ldr	r2, [r0, #4]
  1020a8:	439a      	bics	r2, r3
  1020aa:	6042      	str	r2, [r0, #4]
  1020ac:	e005      	b.n	1020ba <_malloc_r+0x26a>
  1020ae:	1c11      	adds	r1, r2, #0
  1020b0:	6812      	ldr	r2, [r2, #0]
  1020b2:	3908      	subs	r1, #8
  1020b4:	3f01      	subs	r7, #1
  1020b6:	428a      	cmp	r2, r1
  1020b8:	d0f2      	beq.n	1020a0 <_malloc_r+0x250>
  1020ba:	4a28      	ldr	r2, [pc, #160]	; (10215c <_malloc_r+0x30c>)
  1020bc:	6852      	ldr	r2, [r2, #4]
  1020be:	005b      	lsls	r3, r3, #1
  1020c0:	4293      	cmp	r3, r2
  1020c2:	d808      	bhi.n	1020d6 <_malloc_r+0x286>
  1020c4:	2b00      	cmp	r3, #0
  1020c6:	d006      	beq.n	1020d6 <_malloc_r+0x286>
  1020c8:	9f02      	ldr	r7, [sp, #8]
  1020ca:	e001      	b.n	1020d0 <_malloc_r+0x280>
  1020cc:	3704      	adds	r7, #4
  1020ce:	005b      	lsls	r3, r3, #1
  1020d0:	421a      	tst	r2, r3
  1020d2:	d1ab      	bne.n	10202c <_malloc_r+0x1dc>
  1020d4:	e7fa      	b.n	1020cc <_malloc_r+0x27c>
  1020d6:	4b21      	ldr	r3, [pc, #132]	; (10215c <_malloc_r+0x30c>)
  1020d8:	689d      	ldr	r5, [r3, #8]
  1020da:	6868      	ldr	r0, [r5, #4]
  1020dc:	2303      	movs	r3, #3
  1020de:	4398      	bics	r0, r3
  1020e0:	9000      	str	r0, [sp, #0]
  1020e2:	42b0      	cmp	r0, r6
  1020e4:	d303      	bcc.n	1020ee <_malloc_r+0x29e>
  1020e6:	1b83      	subs	r3, r0, r6
  1020e8:	2b0f      	cmp	r3, #15
  1020ea:	dd00      	ble.n	1020ee <_malloc_r+0x29e>
  1020ec:	e09b      	b.n	102226 <_malloc_r+0x3d6>
  1020ee:	4b1e      	ldr	r3, [pc, #120]	; (102168 <_malloc_r+0x318>)
  1020f0:	681f      	ldr	r7, [r3, #0]
  1020f2:	4b1e      	ldr	r3, [pc, #120]	; (10216c <_malloc_r+0x31c>)
  1020f4:	9c00      	ldr	r4, [sp, #0]
  1020f6:	689b      	ldr	r3, [r3, #8]
  1020f8:	192c      	adds	r4, r5, r4
  1020fa:	9402      	str	r4, [sp, #8]
  1020fc:	19f7      	adds	r7, r6, r7
  1020fe:	3301      	adds	r3, #1
  102100:	d101      	bne.n	102106 <_malloc_r+0x2b6>
  102102:	3710      	adds	r7, #16
  102104:	e003      	b.n	10210e <_malloc_r+0x2be>
  102106:	481a      	ldr	r0, [pc, #104]	; (102170 <_malloc_r+0x320>)
  102108:	183f      	adds	r7, r7, r0
  10210a:	0b3f      	lsrs	r7, r7, #12
  10210c:	033f      	lsls	r7, r7, #12
  10210e:	9801      	ldr	r0, [sp, #4]
  102110:	1c39      	adds	r1, r7, #0
  102112:	f000 f8e7 	bl	1022e4 <_sbrk_r>
  102116:	1c04      	adds	r4, r0, #0
  102118:	1c41      	adds	r1, r0, #1
  10211a:	d075      	beq.n	102208 <_malloc_r+0x3b8>
  10211c:	9a02      	ldr	r2, [sp, #8]
  10211e:	4290      	cmp	r0, r2
  102120:	d202      	bcs.n	102128 <_malloc_r+0x2d8>
  102122:	4b0e      	ldr	r3, [pc, #56]	; (10215c <_malloc_r+0x30c>)
  102124:	429d      	cmp	r5, r3
  102126:	d16f      	bne.n	102208 <_malloc_r+0x3b8>
  102128:	4b0f      	ldr	r3, [pc, #60]	; (102168 <_malloc_r+0x318>)
  10212a:	6858      	ldr	r0, [r3, #4]
  10212c:	9902      	ldr	r1, [sp, #8]
  10212e:	183a      	adds	r2, r7, r0
  102130:	605a      	str	r2, [r3, #4]
  102132:	428c      	cmp	r4, r1
  102134:	d109      	bne.n	10214a <_malloc_r+0x2fa>
  102136:	0521      	lsls	r1, r4, #20
  102138:	d107      	bne.n	10214a <_malloc_r+0x2fa>
  10213a:	4b08      	ldr	r3, [pc, #32]	; (10215c <_malloc_r+0x30c>)
  10213c:	9c00      	ldr	r4, [sp, #0]
  10213e:	689b      	ldr	r3, [r3, #8]
  102140:	193a      	adds	r2, r7, r4
  102142:	2701      	movs	r7, #1
  102144:	433a      	orrs	r2, r7
  102146:	605a      	str	r2, [r3, #4]
  102148:	e054      	b.n	1021f4 <_malloc_r+0x3a4>
  10214a:	4908      	ldr	r1, [pc, #32]	; (10216c <_malloc_r+0x31c>)
  10214c:	6888      	ldr	r0, [r1, #8]
  10214e:	3001      	adds	r0, #1
  102150:	d110      	bne.n	102174 <_malloc_r+0x324>
  102152:	608c      	str	r4, [r1, #8]
  102154:	e012      	b.n	10217c <_malloc_r+0x32c>
  102156:	46c0      	nop			; (mov r8, r8)
  102158:	000001f7 	strdeq	r0, [r0], -r7
  10215c:	002004c8 	eoreq	r0, r0, r8, asr #9
  102160:	00000554 	andeq	r0, r0, r4, asr r5
  102164:	000001ff 	strdeq	r0, [r0], -pc	; <UNPREDICTABLE>
  102168:	00200958 	eoreq	r0, r0, r8, asr r9
  10216c:	002008c8 	eoreq	r0, r0, r8, asr #17
  102170:	0000100f 	andeq	r1, r0, pc
  102174:	9802      	ldr	r0, [sp, #8]
  102176:	1a21      	subs	r1, r4, r0
  102178:	1852      	adds	r2, r2, r1
  10217a:	605a      	str	r2, [r3, #4]
  10217c:	2207      	movs	r2, #7
  10217e:	2300      	movs	r3, #0
  102180:	4022      	ands	r2, r4
  102182:	429a      	cmp	r2, r3
  102184:	d002      	beq.n	10218c <_malloc_r+0x33c>
  102186:	2308      	movs	r3, #8
  102188:	1a9b      	subs	r3, r3, r2
  10218a:	18e4      	adds	r4, r4, r3
  10218c:	2180      	movs	r1, #128	; 0x80
  10218e:	19e7      	adds	r7, r4, r7
  102190:	0149      	lsls	r1, r1, #5
  102192:	053f      	lsls	r7, r7, #20
  102194:	185b      	adds	r3, r3, r1
  102196:	0d3f      	lsrs	r7, r7, #20
  102198:	1bdf      	subs	r7, r3, r7
  10219a:	9801      	ldr	r0, [sp, #4]
  10219c:	1c39      	adds	r1, r7, #0
  10219e:	f000 f8a1 	bl	1022e4 <_sbrk_r>
  1021a2:	1c42      	adds	r2, r0, #1
  1021a4:	d101      	bne.n	1021aa <_malloc_r+0x35a>
  1021a6:	1c20      	adds	r0, r4, #0
  1021a8:	2700      	movs	r7, #0
  1021aa:	4b27      	ldr	r3, [pc, #156]	; (102248 <_malloc_r+0x3f8>)
  1021ac:	6859      	ldr	r1, [r3, #4]
  1021ae:	1b00      	subs	r0, r0, r4
  1021b0:	187a      	adds	r2, r7, r1
  1021b2:	605a      	str	r2, [r3, #4]
  1021b4:	19c7      	adds	r7, r0, r7
  1021b6:	4a25      	ldr	r2, [pc, #148]	; (10224c <_malloc_r+0x3fc>)
  1021b8:	2301      	movs	r3, #1
  1021ba:	431f      	orrs	r7, r3
  1021bc:	6094      	str	r4, [r2, #8]
  1021be:	6067      	str	r7, [r4, #4]
  1021c0:	4295      	cmp	r5, r2
  1021c2:	d017      	beq.n	1021f4 <_malloc_r+0x3a4>
  1021c4:	9a00      	ldr	r2, [sp, #0]
  1021c6:	2a0f      	cmp	r2, #15
  1021c8:	d801      	bhi.n	1021ce <_malloc_r+0x37e>
  1021ca:	6063      	str	r3, [r4, #4]
  1021cc:	e01c      	b.n	102208 <_malloc_r+0x3b8>
  1021ce:	9900      	ldr	r1, [sp, #0]
  1021d0:	686c      	ldr	r4, [r5, #4]
  1021d2:	2207      	movs	r2, #7
  1021d4:	390c      	subs	r1, #12
  1021d6:	4391      	bics	r1, r2
  1021d8:	4023      	ands	r3, r4
  1021da:	430b      	orrs	r3, r1
  1021dc:	606b      	str	r3, [r5, #4]
  1021de:	2205      	movs	r2, #5
  1021e0:	186b      	adds	r3, r5, r1
  1021e2:	605a      	str	r2, [r3, #4]
  1021e4:	609a      	str	r2, [r3, #8]
  1021e6:	290f      	cmp	r1, #15
  1021e8:	d904      	bls.n	1021f4 <_malloc_r+0x3a4>
  1021ea:	1c29      	adds	r1, r5, #0
  1021ec:	3108      	adds	r1, #8
  1021ee:	9801      	ldr	r0, [sp, #4]
  1021f0:	f003 fb90 	bl	105914 <_free_r>
  1021f4:	4a14      	ldr	r2, [pc, #80]	; (102248 <_malloc_r+0x3f8>)
  1021f6:	6853      	ldr	r3, [r2, #4]
  1021f8:	6ad1      	ldr	r1, [r2, #44]	; 0x2c
  1021fa:	428b      	cmp	r3, r1
  1021fc:	d900      	bls.n	102200 <_malloc_r+0x3b0>
  1021fe:	62d3      	str	r3, [r2, #44]	; 0x2c
  102200:	6b15      	ldr	r5, [r2, #48]	; 0x30
  102202:	42ab      	cmp	r3, r5
  102204:	d900      	bls.n	102208 <_malloc_r+0x3b8>
  102206:	6313      	str	r3, [r2, #48]	; 0x30
  102208:	4b10      	ldr	r3, [pc, #64]	; (10224c <_malloc_r+0x3fc>)
  10220a:	689b      	ldr	r3, [r3, #8]
  10220c:	685a      	ldr	r2, [r3, #4]
  10220e:	2303      	movs	r3, #3
  102210:	439a      	bics	r2, r3
  102212:	1b93      	subs	r3, r2, r6
  102214:	42b2      	cmp	r2, r6
  102216:	d301      	bcc.n	10221c <_malloc_r+0x3cc>
  102218:	2b0f      	cmp	r3, #15
  10221a:	dc04      	bgt.n	102226 <_malloc_r+0x3d6>
  10221c:	9801      	ldr	r0, [sp, #4]
  10221e:	f000 f841 	bl	1022a4 <__malloc_unlock>
  102222:	2000      	movs	r0, #0
  102224:	e00e      	b.n	102244 <_malloc_r+0x3f4>
  102226:	4809      	ldr	r0, [pc, #36]	; (10224c <_malloc_r+0x3fc>)
  102228:	2101      	movs	r1, #1
  10222a:	6884      	ldr	r4, [r0, #8]
  10222c:	1c0a      	adds	r2, r1, #0
  10222e:	4332      	orrs	r2, r6
  102230:	6062      	str	r2, [r4, #4]
  102232:	430b      	orrs	r3, r1
  102234:	19a2      	adds	r2, r4, r6
  102236:	6082      	str	r2, [r0, #8]
  102238:	6053      	str	r3, [r2, #4]
  10223a:	9801      	ldr	r0, [sp, #4]
  10223c:	f000 f832 	bl	1022a4 <__malloc_unlock>
  102240:	1c20      	adds	r0, r4, #0
  102242:	3008      	adds	r0, #8
  102244:	bdfe      	pop	{r1, r2, r3, r4, r5, r6, r7, pc}
  102246:	46c0      	nop			; (mov r8, r8)
  102248:	00200958 	eoreq	r0, r0, r8, asr r9
  10224c:	002004c8 	eoreq	r0, r0, r8, asr #9

00102250 <memcpy>:
  102250:	b510      	push	{r4, lr}
  102252:	2300      	movs	r3, #0
  102254:	e002      	b.n	10225c <memcpy+0xc>
  102256:	5ccc      	ldrb	r4, [r1, r3]
  102258:	54c4      	strb	r4, [r0, r3]
  10225a:	3301      	adds	r3, #1
  10225c:	4293      	cmp	r3, r2
  10225e:	d1fa      	bne.n	102256 <memcpy+0x6>
  102260:	bd10      	pop	{r4, pc}

00102262 <memmove>:
  102262:	b570      	push	{r4, r5, r6, lr}
  102264:	4281      	cmp	r1, r0
  102266:	d210      	bcs.n	10228a <memmove+0x28>
  102268:	188b      	adds	r3, r1, r2
  10226a:	4298      	cmp	r0, r3
  10226c:	d20d      	bcs.n	10228a <memmove+0x28>
  10226e:	1884      	adds	r4, r0, r2
  102270:	4251      	negs	r1, r2
  102272:	e003      	b.n	10227c <memmove+0x1a>
  102274:	185d      	adds	r5, r3, r1
  102276:	5cae      	ldrb	r6, [r5, r2]
  102278:	1865      	adds	r5, r4, r1
  10227a:	54ae      	strb	r6, [r5, r2]
  10227c:	3a01      	subs	r2, #1
  10227e:	d2f9      	bcs.n	102274 <memmove+0x12>
  102280:	e006      	b.n	102290 <memmove+0x2e>
  102282:	5ccc      	ldrb	r4, [r1, r3]
  102284:	54c4      	strb	r4, [r0, r3]
  102286:	3301      	adds	r3, #1
  102288:	e000      	b.n	10228c <memmove+0x2a>
  10228a:	2300      	movs	r3, #0
  10228c:	4293      	cmp	r3, r2
  10228e:	d1f8      	bne.n	102282 <memmove+0x20>
  102290:	bd70      	pop	{r4, r5, r6, pc}

00102292 <memset>:
  102292:	1882      	adds	r2, r0, r2
  102294:	1c03      	adds	r3, r0, #0
  102296:	e001      	b.n	10229c <memset+0xa>
  102298:	7019      	strb	r1, [r3, #0]
  10229a:	3301      	adds	r3, #1
  10229c:	4293      	cmp	r3, r2
  10229e:	d1fb      	bne.n	102298 <memset+0x6>
  1022a0:	4770      	bx	lr

001022a2 <__malloc_lock>:
  1022a2:	4770      	bx	lr

001022a4 <__malloc_unlock>:
  1022a4:	4770      	bx	lr
  1022a6:	ffff b40e 	vraddhn.i<illegal width 128>	d27, <illegal reg q7.5>, q7

001022a8 <_printf_r>:
  1022a8:	b40e      	push	{r1, r2, r3}
  1022aa:	b501      	push	{r0, lr}
  1022ac:	ab02      	add	r3, sp, #8
  1022ae:	cb04      	ldmia	r3!, {r2}
  1022b0:	6881      	ldr	r1, [r0, #8]
  1022b2:	9300      	str	r3, [sp, #0]
  1022b4:	f001 fa4e 	bl	103754 <_vfprintf_r>
  1022b8:	b001      	add	sp, #4
  1022ba:	bc08      	pop	{r3}
  1022bc:	b003      	add	sp, #12
  1022be:	4718      	bx	r3

001022c0 <printf>:
  1022c0:	b40f      	push	{r0, r1, r2, r3}
  1022c2:	b501      	push	{r0, lr}
  1022c4:	ab02      	add	r3, sp, #8
  1022c6:	cb04      	ldmia	r3!, {r2}
  1022c8:	4a05      	ldr	r2, [pc, #20]	; (1022e0 <printf+0x20>)
  1022ca:	6810      	ldr	r0, [r2, #0]
  1022cc:	9a02      	ldr	r2, [sp, #8]
  1022ce:	6881      	ldr	r1, [r0, #8]
  1022d0:	9300      	str	r3, [sp, #0]
  1022d2:	f001 fa3f 	bl	103754 <_vfprintf_r>
  1022d6:	b001      	add	sp, #4
  1022d8:	bc08      	pop	{r3}
  1022da:	b004      	add	sp, #16
  1022dc:	4718      	bx	r3
  1022de:	46c0      	nop			; (mov r8, r8)
  1022e0:	002000a0 	eoreq	r0, r0, r0, lsr #1

001022e4 <_sbrk_r>:
  1022e4:	b530      	push	{r4, r5, lr}
  1022e6:	4c07      	ldr	r4, [pc, #28]	; (102304 <_sbrk_r+0x20>)
  1022e8:	2300      	movs	r3, #0
  1022ea:	1c05      	adds	r5, r0, #0
  1022ec:	1c08      	adds	r0, r1, #0
  1022ee:	6023      	str	r3, [r4, #0]
  1022f0:	f001 f964 	bl	1035bc <_sbrk>
  1022f4:	1c43      	adds	r3, r0, #1
  1022f6:	d103      	bne.n	102300 <_sbrk_r+0x1c>
  1022f8:	6823      	ldr	r3, [r4, #0]
  1022fa:	2b00      	cmp	r3, #0
  1022fc:	d000      	beq.n	102300 <_sbrk_r+0x1c>
  1022fe:	602b      	str	r3, [r5, #0]
  102300:	bd30      	pop	{r4, r5, pc}
  102302:	46c0      	nop			; (mov r8, r8)
  102304:	00200aec 	eoreq	r0, r0, ip, ror #21

00102308 <_sprintf_r>:
  102308:	b40c      	push	{r2, r3}
  10230a:	b510      	push	{r4, lr}
  10230c:	b09b      	sub	sp, #108	; 0x6c
  10230e:	9101      	str	r1, [sp, #4]
  102310:	9105      	str	r1, [sp, #20]
  102312:	490c      	ldr	r1, [pc, #48]	; (102344 <_sprintf_r+0x3c>)
  102314:	ab1d      	add	r3, sp, #116	; 0x74
  102316:	9103      	str	r1, [sp, #12]
  102318:	9106      	str	r1, [sp, #24]
  10231a:	2482      	movs	r4, #130	; 0x82
  10231c:	2101      	movs	r1, #1
  10231e:	cb04      	ldmia	r3!, {r2}
  102320:	00a4      	lsls	r4, r4, #2
  102322:	aa01      	add	r2, sp, #4
  102324:	4249      	negs	r1, r1
  102326:	8194      	strh	r4, [r2, #12]
  102328:	81d1      	strh	r1, [r2, #14]
  10232a:	1c11      	adds	r1, r2, #0
  10232c:	9a1d      	ldr	r2, [sp, #116]	; 0x74
  10232e:	9300      	str	r3, [sp, #0]
  102330:	f000 f82c 	bl	10238c <_svfprintf_r>
  102334:	9a01      	ldr	r2, [sp, #4]
  102336:	2300      	movs	r3, #0
  102338:	7013      	strb	r3, [r2, #0]
  10233a:	b01b      	add	sp, #108	; 0x6c
  10233c:	bc10      	pop	{r4}
  10233e:	bc08      	pop	{r3}
  102340:	b002      	add	sp, #8
  102342:	4718      	bx	r3
  102344:	7fffffff 	svcvc	0x00ffffff

00102348 <sprintf>:
  102348:	b40e      	push	{r1, r2, r3}
  10234a:	b500      	push	{lr}
  10234c:	b09b      	sub	sp, #108	; 0x6c
  10234e:	ab1c      	add	r3, sp, #112	; 0x70
  102350:	cb04      	ldmia	r3!, {r2}
  102352:	2282      	movs	r2, #130	; 0x82
  102354:	a901      	add	r1, sp, #4
  102356:	0092      	lsls	r2, r2, #2
  102358:	818a      	strh	r2, [r1, #12]
  10235a:	4a0a      	ldr	r2, [pc, #40]	; (102384 <sprintf+0x3c>)
  10235c:	608a      	str	r2, [r1, #8]
  10235e:	614a      	str	r2, [r1, #20]
  102360:	2201      	movs	r2, #1
  102362:	4252      	negs	r2, r2
  102364:	81ca      	strh	r2, [r1, #14]
  102366:	4a08      	ldr	r2, [pc, #32]	; (102388 <sprintf+0x40>)
  102368:	9001      	str	r0, [sp, #4]
  10236a:	6108      	str	r0, [r1, #16]
  10236c:	6810      	ldr	r0, [r2, #0]
  10236e:	9a1c      	ldr	r2, [sp, #112]	; 0x70
  102370:	9300      	str	r3, [sp, #0]
  102372:	f000 f80b 	bl	10238c <_svfprintf_r>
  102376:	9a01      	ldr	r2, [sp, #4]
  102378:	2300      	movs	r3, #0
  10237a:	7013      	strb	r3, [r2, #0]
  10237c:	b01b      	add	sp, #108	; 0x6c
  10237e:	bc08      	pop	{r3}
  102380:	b003      	add	sp, #12
  102382:	4718      	bx	r3
  102384:	7fffffff 	svcvc	0x00ffffff
  102388:	002000a0 	eoreq	r0, r0, r0, lsr #1

0010238c <_svfprintf_r>:
  10238c:	b5f0      	push	{r4, r5, r6, r7, lr}
  10238e:	b0c1      	sub	sp, #260	; 0x104
  102390:	9108      	str	r1, [sp, #32]
  102392:	1c1f      	adds	r7, r3, #0
  102394:	1c15      	adds	r5, r2, #0
  102396:	9009      	str	r0, [sp, #36]	; 0x24
  102398:	f003 fbf2 	bl	105b80 <_localeconv_r>
  10239c:	6800      	ldr	r0, [r0, #0]
  10239e:	9017      	str	r0, [sp, #92]	; 0x5c
  1023a0:	f004 f974 	bl	10668c <strlen>
  1023a4:	9015      	str	r0, [sp, #84]	; 0x54
  1023a6:	2000      	movs	r0, #0
  1023a8:	2100      	movs	r1, #0
  1023aa:	9011      	str	r0, [sp, #68]	; 0x44
  1023ac:	9112      	str	r1, [sp, #72]	; 0x48
  1023ae:	9c08      	ldr	r4, [sp, #32]
  1023b0:	89a3      	ldrh	r3, [r4, #12]
  1023b2:	0618      	lsls	r0, r3, #24
  1023b4:	d512      	bpl.n	1023dc <_svfprintf_r+0x50>
  1023b6:	6921      	ldr	r1, [r4, #16]
  1023b8:	2900      	cmp	r1, #0
  1023ba:	d10f      	bne.n	1023dc <_svfprintf_r+0x50>
  1023bc:	9809      	ldr	r0, [sp, #36]	; 0x24
  1023be:	2140      	movs	r1, #64	; 0x40
  1023c0:	f7ff fd46 	bl	101e50 <_malloc_r>
  1023c4:	6020      	str	r0, [r4, #0]
  1023c6:	6120      	str	r0, [r4, #16]
  1023c8:	2800      	cmp	r0, #0
  1023ca:	d104      	bne.n	1023d6 <_svfprintf_r+0x4a>
  1023cc:	9c09      	ldr	r4, [sp, #36]	; 0x24
  1023ce:	230c      	movs	r3, #12
  1023d0:	6023      	str	r3, [r4, #0]
  1023d2:	f000 ff48 	bl	103266 <_svfprintf_r+0xeda>
  1023d6:	9c08      	ldr	r4, [sp, #32]
  1023d8:	2340      	movs	r3, #64	; 0x40
  1023da:	6163      	str	r3, [r4, #20]
  1023dc:	2300      	movs	r3, #0
  1023de:	ac31      	add	r4, sp, #196	; 0xc4
  1023e0:	9424      	str	r4, [sp, #144]	; 0x90
  1023e2:	9326      	str	r3, [sp, #152]	; 0x98
  1023e4:	9325      	str	r3, [sp, #148]	; 0x94
  1023e6:	950e      	str	r5, [sp, #56]	; 0x38
  1023e8:	930d      	str	r3, [sp, #52]	; 0x34
  1023ea:	9319      	str	r3, [sp, #100]	; 0x64
  1023ec:	9318      	str	r3, [sp, #96]	; 0x60
  1023ee:	9314      	str	r3, [sp, #80]	; 0x50
  1023f0:	9d0e      	ldr	r5, [sp, #56]	; 0x38
  1023f2:	e000      	b.n	1023f6 <_svfprintf_r+0x6a>
  1023f4:	3501      	adds	r5, #1
  1023f6:	782b      	ldrb	r3, [r5, #0]
  1023f8:	2b25      	cmp	r3, #37	; 0x25
  1023fa:	d001      	beq.n	102400 <_svfprintf_r+0x74>
  1023fc:	2b00      	cmp	r3, #0
  1023fe:	d1f9      	bne.n	1023f4 <_svfprintf_r+0x68>
  102400:	980e      	ldr	r0, [sp, #56]	; 0x38
  102402:	1a2e      	subs	r6, r5, r0
  102404:	d018      	beq.n	102438 <_svfprintf_r+0xac>
  102406:	9926      	ldr	r1, [sp, #152]	; 0x98
  102408:	198b      	adds	r3, r1, r6
  10240a:	6020      	str	r0, [r4, #0]
  10240c:	6066      	str	r6, [r4, #4]
  10240e:	9326      	str	r3, [sp, #152]	; 0x98
  102410:	9b25      	ldr	r3, [sp, #148]	; 0x94
  102412:	3301      	adds	r3, #1
  102414:	9325      	str	r3, [sp, #148]	; 0x94
  102416:	2b07      	cmp	r3, #7
  102418:	dc01      	bgt.n	10241e <_svfprintf_r+0x92>
  10241a:	3408      	adds	r4, #8
  10241c:	e009      	b.n	102432 <_svfprintf_r+0xa6>
  10241e:	9809      	ldr	r0, [sp, #36]	; 0x24
  102420:	9908      	ldr	r1, [sp, #32]
  102422:	aa24      	add	r2, sp, #144	; 0x90
  102424:	f004 f93a 	bl	10669c <__ssprint_r>
  102428:	2800      	cmp	r0, #0
  10242a:	d001      	beq.n	102430 <_svfprintf_r+0xa4>
  10242c:	f000 ff17 	bl	10325e <_svfprintf_r+0xed2>
  102430:	ac31      	add	r4, sp, #196	; 0xc4
  102432:	9a14      	ldr	r2, [sp, #80]	; 0x50
  102434:	1992      	adds	r2, r2, r6
  102436:	9214      	str	r2, [sp, #80]	; 0x50
  102438:	782b      	ldrb	r3, [r5, #0]
  10243a:	2b00      	cmp	r3, #0
  10243c:	d101      	bne.n	102442 <_svfprintf_r+0xb6>
  10243e:	f000 ff06 	bl	10324e <_svfprintf_r+0xec2>
  102442:	3501      	adds	r5, #1
  102444:	950e      	str	r5, [sp, #56]	; 0x38
  102446:	466a      	mov	r2, sp
  102448:	2501      	movs	r5, #1
  10244a:	2300      	movs	r3, #0
  10244c:	326f      	adds	r2, #111	; 0x6f
  10244e:	426d      	negs	r5, r5
  102450:	7013      	strb	r3, [r2, #0]
  102452:	9507      	str	r5, [sp, #28]
  102454:	9313      	str	r3, [sp, #76]	; 0x4c
  102456:	9306      	str	r3, [sp, #24]
  102458:	210a      	movs	r1, #10
  10245a:	2210      	movs	r2, #16
  10245c:	e003      	b.n	102466 <_svfprintf_r+0xda>
  10245e:	2501      	movs	r5, #1
  102460:	426d      	negs	r5, r5
  102462:	9507      	str	r5, [sp, #28]
  102464:	1c1f      	adds	r7, r3, #0
  102466:	9b0e      	ldr	r3, [sp, #56]	; 0x38
  102468:	980e      	ldr	r0, [sp, #56]	; 0x38
  10246a:	781b      	ldrb	r3, [r3, #0]
  10246c:	3001      	adds	r0, #1
  10246e:	930b      	str	r3, [sp, #44]	; 0x2c
  102470:	900e      	str	r0, [sp, #56]	; 0x38
  102472:	980b      	ldr	r0, [sp, #44]	; 0x2c
  102474:	3820      	subs	r0, #32
  102476:	2858      	cmp	r0, #88	; 0x58
  102478:	d900      	bls.n	10247c <_svfprintf_r+0xf0>
  10247a:	e332      	b.n	102ae2 <_svfprintf_r+0x756>
  10247c:	f005 fe52 	bl	108124 <__gnu_thumb1_case_uhi>
  102480:	03310059 	teqeq	r1, #89	; 0x59
  102484:	00600331 	rsbeq	r0, r0, r1, lsr r3
  102488:	03310331 	teqeq	r1, #-1006632960	; 0xc4000000
  10248c:	03310331 	teqeq	r1, #-1006632960	; 0xc4000000
  102490:	03310331 	teqeq	r1, #-1006632960	; 0xc4000000
  102494:	006b0062 	rsbeq	r0, fp, r2, rrx
  102498:	00690331 	rsbeq	r0, r9, r1, lsr r3
  10249c:	03310070 	teqeq	r1, #112	; 0x70
  1024a0:	00980096 	umullseq	r0, r8, r6, r0
  1024a4:	00980098 	umullseq	r0, r8, r8, r0
  1024a8:	00980098 	umullseq	r0, r8, r8, r0
  1024ac:	00980098 	umullseq	r0, r8, r8, r0
  1024b0:	00980098 	umullseq	r0, r8, r8, r0
  1024b4:	03310331 	teqeq	r1, #-1006632960	; 0xc4000000
  1024b8:	03310331 	teqeq	r1, #-1006632960	; 0xc4000000
  1024bc:	03310331 	teqeq	r1, #-1006632960	; 0xc4000000
  1024c0:	03310331 	teqeq	r1, #-1006632960	; 0xc4000000
  1024c4:	03310331 	teqeq	r1, #-1006632960	; 0xc4000000
  1024c8:	00d900c2 	sbcseq	r0, r9, r2, asr #1
  1024cc:	00d90331 	sbcseq	r0, r9, r1, lsr r3
  1024d0:	03310331 	teqeq	r1, #-1006632960	; 0xc4000000
  1024d4:	03310331 	teqeq	r1, #-1006632960	; 0xc4000000
  1024d8:	033100a9 	teqeq	r1, #169	; 0xa9
  1024dc:	024d0331 	subeq	r0, sp, #-1006632960	; 0xc4000000
  1024e0:	03310331 	teqeq	r1, #-1006632960	; 0xc4000000
  1024e4:	03310331 	teqeq	r1, #-1006632960	; 0xc4000000
  1024e8:	02a10331 	adceq	r0, r1, #-1006632960	; 0xc4000000
  1024ec:	03310331 	teqeq	r1, #-1006632960	; 0xc4000000
  1024f0:	033102b6 	teqeq	r1, #1610612747	; 0x6000000b
  1024f4:	03310331 	teqeq	r1, #-1006632960	; 0xc4000000
  1024f8:	03310331 	teqeq	r1, #-1006632960	; 0xc4000000
  1024fc:	03310331 	teqeq	r1, #-1006632960	; 0xc4000000
  102500:	03310331 	teqeq	r1, #-1006632960	; 0xc4000000
  102504:	00b70331 	adcseq	r0, r7, r1, lsr r3
  102508:	00d900c6 	sbcseq	r0, r9, r6, asr #1
  10250c:	00d900d9 	ldrsbeq	r0, [r9], #9
  102510:	00c600ab 	sbceq	r0, r6, fp, lsr #1
  102514:	03310331 	teqeq	r1, #-1006632960	; 0xc4000000
  102518:	033100af 	teqeq	r1, #175	; 0xaf
  10251c:	02510239 	subseq	r0, r1, #-1879048189	; 0x90000003
  102520:	00b30264 	adcseq	r0, r3, r4, ror #4
  102524:	02820331 	addeq	r0, r2, #-1006632960	; 0xc4000000
  102528:	02a50331 	adceq	r0, r5, #-1006632960	; 0xc4000000
  10252c:	03310331 	teqeq	r1, #-1006632960	; 0xc4000000
  102530:	466b02b3 			; <UNDEFINED> instruction: 0x466b02b3
  102534:	336f      	adds	r3, #111	; 0x6f
  102536:	7818      	ldrb	r0, [r3, #0]
  102538:	2800      	cmp	r0, #0
  10253a:	d194      	bne.n	102466 <_svfprintf_r+0xda>
  10253c:	2020      	movs	r0, #32
  10253e:	e00d      	b.n	10255c <_svfprintf_r+0x1d0>
  102540:	2301      	movs	r3, #1
  102542:	e049      	b.n	1025d8 <_svfprintf_r+0x24c>
  102544:	683b      	ldr	r3, [r7, #0]
  102546:	3704      	adds	r7, #4
  102548:	9313      	str	r3, [sp, #76]	; 0x4c
  10254a:	2b00      	cmp	r3, #0
  10254c:	da8b      	bge.n	102466 <_svfprintf_r+0xda>
  10254e:	425b      	negs	r3, r3
  102550:	9313      	str	r3, [sp, #76]	; 0x4c
  102552:	2304      	movs	r3, #4
  102554:	e040      	b.n	1025d8 <_svfprintf_r+0x24c>
  102556:	466b      	mov	r3, sp
  102558:	202b      	movs	r0, #43	; 0x2b
  10255a:	336f      	adds	r3, #111	; 0x6f
  10255c:	7018      	strb	r0, [r3, #0]
  10255e:	e782      	b.n	102466 <_svfprintf_r+0xda>
  102560:	9b0e      	ldr	r3, [sp, #56]	; 0x38
  102562:	980e      	ldr	r0, [sp, #56]	; 0x38
  102564:	781b      	ldrb	r3, [r3, #0]
  102566:	3001      	adds	r0, #1
  102568:	930b      	str	r3, [sp, #44]	; 0x2c
  10256a:	900e      	str	r0, [sp, #56]	; 0x38
  10256c:	2b2a      	cmp	r3, #42	; 0x2a
  10256e:	d110      	bne.n	102592 <_svfprintf_r+0x206>
  102570:	1d3b      	adds	r3, r7, #4
  102572:	683f      	ldr	r7, [r7, #0]
  102574:	9707      	str	r7, [sp, #28]
  102576:	2f00      	cmp	r7, #0
  102578:	da00      	bge.n	10257c <_svfprintf_r+0x1f0>
  10257a:	e770      	b.n	10245e <_svfprintf_r+0xd2>
  10257c:	1c1f      	adds	r7, r3, #0
  10257e:	e772      	b.n	102466 <_svfprintf_r+0xda>
  102580:	434d      	muls	r5, r1
  102582:	18ed      	adds	r5, r5, r3
  102584:	9b0e      	ldr	r3, [sp, #56]	; 0x38
  102586:	980e      	ldr	r0, [sp, #56]	; 0x38
  102588:	781b      	ldrb	r3, [r3, #0]
  10258a:	3001      	adds	r0, #1
  10258c:	930b      	str	r3, [sp, #44]	; 0x2c
  10258e:	900e      	str	r0, [sp, #56]	; 0x38
  102590:	e000      	b.n	102594 <_svfprintf_r+0x208>
  102592:	2500      	movs	r5, #0
  102594:	9b0b      	ldr	r3, [sp, #44]	; 0x2c
  102596:	3b30      	subs	r3, #48	; 0x30
  102598:	2b09      	cmp	r3, #9
  10259a:	d9f1      	bls.n	102580 <_svfprintf_r+0x1f4>
  10259c:	9507      	str	r5, [sp, #28]
  10259e:	2d00      	cmp	r5, #0
  1025a0:	db00      	blt.n	1025a4 <_svfprintf_r+0x218>
  1025a2:	e766      	b.n	102472 <_svfprintf_r+0xe6>
  1025a4:	2501      	movs	r5, #1
  1025a6:	426d      	negs	r5, r5
  1025a8:	9507      	str	r5, [sp, #28]
  1025aa:	e762      	b.n	102472 <_svfprintf_r+0xe6>
  1025ac:	2380      	movs	r3, #128	; 0x80
  1025ae:	e013      	b.n	1025d8 <_svfprintf_r+0x24c>
  1025b0:	2300      	movs	r3, #0
  1025b2:	434b      	muls	r3, r1
  1025b4:	980b      	ldr	r0, [sp, #44]	; 0x2c
  1025b6:	3830      	subs	r0, #48	; 0x30
  1025b8:	181b      	adds	r3, r3, r0
  1025ba:	980e      	ldr	r0, [sp, #56]	; 0x38
  1025bc:	7800      	ldrb	r0, [r0, #0]
  1025be:	900b      	str	r0, [sp, #44]	; 0x2c
  1025c0:	980e      	ldr	r0, [sp, #56]	; 0x38
  1025c2:	3001      	adds	r0, #1
  1025c4:	900e      	str	r0, [sp, #56]	; 0x38
  1025c6:	980b      	ldr	r0, [sp, #44]	; 0x2c
  1025c8:	3830      	subs	r0, #48	; 0x30
  1025ca:	2809      	cmp	r0, #9
  1025cc:	d9f1      	bls.n	1025b2 <_svfprintf_r+0x226>
  1025ce:	9313      	str	r3, [sp, #76]	; 0x4c
  1025d0:	e74f      	b.n	102472 <_svfprintf_r+0xe6>
  1025d2:	2308      	movs	r3, #8
  1025d4:	e000      	b.n	1025d8 <_svfprintf_r+0x24c>
  1025d6:	2340      	movs	r3, #64	; 0x40
  1025d8:	9806      	ldr	r0, [sp, #24]
  1025da:	4318      	orrs	r0, r3
  1025dc:	e005      	b.n	1025ea <_svfprintf_r+0x25e>
  1025de:	9b06      	ldr	r3, [sp, #24]
  1025e0:	4313      	orrs	r3, r2
  1025e2:	9306      	str	r3, [sp, #24]
  1025e4:	e73f      	b.n	102466 <_svfprintf_r+0xda>
  1025e6:	9806      	ldr	r0, [sp, #24]
  1025e8:	4310      	orrs	r0, r2
  1025ea:	9006      	str	r0, [sp, #24]
  1025ec:	e73b      	b.n	102466 <_svfprintf_r+0xda>
  1025ee:	6839      	ldr	r1, [r7, #0]
  1025f0:	466b      	mov	r3, sp
  1025f2:	ae27      	add	r6, sp, #156	; 0x9c
  1025f4:	2500      	movs	r5, #0
  1025f6:	336f      	adds	r3, #111	; 0x6f
  1025f8:	2201      	movs	r2, #1
  1025fa:	7031      	strb	r1, [r6, #0]
  1025fc:	701d      	strb	r5, [r3, #0]
  1025fe:	3704      	adds	r7, #4
  102600:	920a      	str	r2, [sp, #40]	; 0x28
  102602:	e27a      	b.n	102afa <_svfprintf_r+0x76e>
  102604:	9806      	ldr	r0, [sp, #24]
  102606:	2310      	movs	r3, #16
  102608:	4318      	orrs	r0, r3
  10260a:	9006      	str	r0, [sp, #24]
  10260c:	9906      	ldr	r1, [sp, #24]
  10260e:	1d3b      	adds	r3, r7, #4
  102610:	683d      	ldr	r5, [r7, #0]
  102612:	06c9      	lsls	r1, r1, #27
  102614:	d500      	bpl.n	102618 <_svfprintf_r+0x28c>
  102616:	e004      	b.n	102622 <_svfprintf_r+0x296>
  102618:	9a06      	ldr	r2, [sp, #24]
  10261a:	0652      	lsls	r2, r2, #25
  10261c:	d501      	bpl.n	102622 <_svfprintf_r+0x296>
  10261e:	042d      	lsls	r5, r5, #16
  102620:	142d      	asrs	r5, r5, #16
  102622:	1c1f      	adds	r7, r3, #0
  102624:	2301      	movs	r3, #1
  102626:	2d00      	cmp	r5, #0
  102628:	db00      	blt.n	10262c <_svfprintf_r+0x2a0>
  10262a:	e200      	b.n	102a2e <_svfprintf_r+0x6a2>
  10262c:	426d      	negs	r5, r5
  10262e:	212d      	movs	r1, #45	; 0x2d
  102630:	e1fa      	b.n	102a28 <_svfprintf_r+0x69c>
  102632:	9b06      	ldr	r3, [sp, #24]
  102634:	980b      	ldr	r0, [sp, #44]	; 0x2c
  102636:	9906      	ldr	r1, [sp, #24]
  102638:	930f      	str	r3, [sp, #60]	; 0x3c
  10263a:	1c3b      	adds	r3, r7, #0
  10263c:	9010      	str	r0, [sp, #64]	; 0x40
  10263e:	3308      	adds	r3, #8
  102640:	0709      	lsls	r1, r1, #28
  102642:	d504      	bpl.n	10264e <_svfprintf_r+0x2c2>
  102644:	6838      	ldr	r0, [r7, #0]
  102646:	6879      	ldr	r1, [r7, #4]
  102648:	9011      	str	r0, [sp, #68]	; 0x44
  10264a:	9112      	str	r1, [sp, #72]	; 0x48
  10264c:	e003      	b.n	102656 <_svfprintf_r+0x2ca>
  10264e:	6839      	ldr	r1, [r7, #0]
  102650:	687a      	ldr	r2, [r7, #4]
  102652:	9111      	str	r1, [sp, #68]	; 0x44
  102654:	9212      	str	r2, [sp, #72]	; 0x48
  102656:	9a11      	ldr	r2, [sp, #68]	; 0x44
  102658:	1c1f      	adds	r7, r3, #0
  10265a:	9b12      	ldr	r3, [sp, #72]	; 0x48
  10265c:	1c10      	adds	r0, r2, #0
  10265e:	1c19      	adds	r1, r3, #0
  102660:	920a      	str	r2, [sp, #40]	; 0x28
  102662:	9316      	str	r3, [sp, #88]	; 0x58
  102664:	f003 ff90 	bl	106588 <__fpclassifyd>
  102668:	2801      	cmp	r0, #1
  10266a:	d11b      	bne.n	1026a4 <_svfprintf_r+0x318>
  10266c:	9811      	ldr	r0, [sp, #68]	; 0x44
  10266e:	9912      	ldr	r1, [sp, #72]	; 0x48
  102670:	4bbe      	ldr	r3, [pc, #760]	; (10296c <_svfprintf_r+0x5e0>)
  102672:	4abd      	ldr	r2, [pc, #756]	; (102968 <_svfprintf_r+0x5dc>)
  102674:	f006 faa2 	bl	108bbc <__ledf2>
  102678:	2800      	cmp	r0, #0
  10267a:	da03      	bge.n	102684 <_svfprintf_r+0x2f8>
  10267c:	466b      	mov	r3, sp
  10267e:	222d      	movs	r2, #45	; 0x2d
  102680:	336f      	adds	r3, #111	; 0x6f
  102682:	701a      	strb	r2, [r3, #0]
  102684:	980b      	ldr	r0, [sp, #44]	; 0x2c
  102686:	2847      	cmp	r0, #71	; 0x47
  102688:	dc02      	bgt.n	102690 <_svfprintf_r+0x304>
  10268a:	49b9      	ldr	r1, [pc, #740]	; (102970 <_svfprintf_r+0x5e4>)
  10268c:	9105      	str	r1, [sp, #20]
  10268e:	e001      	b.n	102694 <_svfprintf_r+0x308>
  102690:	4ab8      	ldr	r2, [pc, #736]	; (102974 <_svfprintf_r+0x5e8>)
  102692:	9205      	str	r2, [sp, #20]
  102694:	9806      	ldr	r0, [sp, #24]
  102696:	2380      	movs	r3, #128	; 0x80
  102698:	4398      	bics	r0, r3
  10269a:	9006      	str	r0, [sp, #24]
  10269c:	2103      	movs	r1, #3
  10269e:	910a      	str	r1, [sp, #40]	; 0x28
  1026a0:	2500      	movs	r5, #0
  1026a2:	e231      	b.n	102b08 <_svfprintf_r+0x77c>
  1026a4:	9811      	ldr	r0, [sp, #68]	; 0x44
  1026a6:	9912      	ldr	r1, [sp, #72]	; 0x48
  1026a8:	f003 ff6e 	bl	106588 <__fpclassifyd>
  1026ac:	2800      	cmp	r0, #0
  1026ae:	d10e      	bne.n	1026ce <_svfprintf_r+0x342>
  1026b0:	9a0b      	ldr	r2, [sp, #44]	; 0x2c
  1026b2:	2a47      	cmp	r2, #71	; 0x47
  1026b4:	dc02      	bgt.n	1026bc <_svfprintf_r+0x330>
  1026b6:	4bb0      	ldr	r3, [pc, #704]	; (102978 <_svfprintf_r+0x5ec>)
  1026b8:	9305      	str	r3, [sp, #20]
  1026ba:	e001      	b.n	1026c0 <_svfprintf_r+0x334>
  1026bc:	48af      	ldr	r0, [pc, #700]	; (10297c <_svfprintf_r+0x5f0>)
  1026be:	9005      	str	r0, [sp, #20]
  1026c0:	9906      	ldr	r1, [sp, #24]
  1026c2:	2380      	movs	r3, #128	; 0x80
  1026c4:	4399      	bics	r1, r3
  1026c6:	2203      	movs	r2, #3
  1026c8:	9106      	str	r1, [sp, #24]
  1026ca:	920a      	str	r2, [sp, #40]	; 0x28
  1026cc:	e7e8      	b.n	1026a0 <_svfprintf_r+0x314>
  1026ce:	9b07      	ldr	r3, [sp, #28]
  1026d0:	3301      	adds	r3, #1
  1026d2:	d008      	beq.n	1026e6 <_svfprintf_r+0x35a>
  1026d4:	980b      	ldr	r0, [sp, #44]	; 0x2c
  1026d6:	2320      	movs	r3, #32
  1026d8:	4398      	bics	r0, r3
  1026da:	2847      	cmp	r0, #71	; 0x47
  1026dc:	d108      	bne.n	1026f0 <_svfprintf_r+0x364>
  1026de:	9907      	ldr	r1, [sp, #28]
  1026e0:	2900      	cmp	r1, #0
  1026e2:	d003      	beq.n	1026ec <_svfprintf_r+0x360>
  1026e4:	e004      	b.n	1026f0 <_svfprintf_r+0x364>
  1026e6:	2206      	movs	r2, #6
  1026e8:	9207      	str	r2, [sp, #28]
  1026ea:	e001      	b.n	1026f0 <_svfprintf_r+0x364>
  1026ec:	2301      	movs	r3, #1
  1026ee:	9307      	str	r3, [sp, #28]
  1026f0:	9806      	ldr	r0, [sp, #24]
  1026f2:	2380      	movs	r3, #128	; 0x80
  1026f4:	005b      	lsls	r3, r3, #1
  1026f6:	9a0a      	ldr	r2, [sp, #40]	; 0x28
  1026f8:	4318      	orrs	r0, r3
  1026fa:	2100      	movs	r1, #0
  1026fc:	9006      	str	r0, [sp, #24]
  1026fe:	911a      	str	r1, [sp, #104]	; 0x68
  102700:	428a      	cmp	r2, r1
  102702:	da06      	bge.n	102712 <_svfprintf_r+0x386>
  102704:	9a0a      	ldr	r2, [sp, #40]	; 0x28
  102706:	2380      	movs	r3, #128	; 0x80
  102708:	061b      	lsls	r3, r3, #24
  10270a:	18d2      	adds	r2, r2, r3
  10270c:	202d      	movs	r0, #45	; 0x2d
  10270e:	920a      	str	r2, [sp, #40]	; 0x28
  102710:	901a      	str	r0, [sp, #104]	; 0x68
  102712:	990b      	ldr	r1, [sp, #44]	; 0x2c
  102714:	2320      	movs	r3, #32
  102716:	4399      	bics	r1, r3
  102718:	1c0b      	adds	r3, r1, #0
  10271a:	3b46      	subs	r3, #70	; 0x46
  10271c:	425a      	negs	r2, r3
  10271e:	415a      	adcs	r2, r3
  102720:	910c      	str	r1, [sp, #48]	; 0x30
  102722:	920d      	str	r2, [sp, #52]	; 0x34
  102724:	9d07      	ldr	r5, [sp, #28]
  102726:	2603      	movs	r6, #3
  102728:	2a00      	cmp	r2, #0
  10272a:	d104      	bne.n	102736 <_svfprintf_r+0x3aa>
  10272c:	2945      	cmp	r1, #69	; 0x45
  10272e:	d101      	bne.n	102734 <_svfprintf_r+0x3a8>
  102730:	3501      	adds	r5, #1
  102732:	e7ff      	b.n	102734 <_svfprintf_r+0x3a8>
  102734:	2602      	movs	r6, #2
  102736:	ab1d      	add	r3, sp, #116	; 0x74
  102738:	9301      	str	r3, [sp, #4]
  10273a:	ab1e      	add	r3, sp, #120	; 0x78
  10273c:	9302      	str	r3, [sp, #8]
  10273e:	ab1f      	add	r3, sp, #124	; 0x7c
  102740:	9a0a      	ldr	r2, [sp, #40]	; 0x28
  102742:	9303      	str	r3, [sp, #12]
  102744:	9b16      	ldr	r3, [sp, #88]	; 0x58
  102746:	1c11      	adds	r1, r2, #0
  102748:	9500      	str	r5, [sp, #0]
  10274a:	1c1a      	adds	r2, r3, #0
  10274c:	9809      	ldr	r0, [sp, #36]	; 0x24
  10274e:	1c33      	adds	r3, r6, #0
  102750:	f002 f940 	bl	1049d4 <_dtoa_r>
  102754:	9b0c      	ldr	r3, [sp, #48]	; 0x30
  102756:	9005      	str	r0, [sp, #20]
  102758:	2b47      	cmp	r3, #71	; 0x47
  10275a:	d10b      	bne.n	102774 <_svfprintf_r+0x3e8>
  10275c:	980f      	ldr	r0, [sp, #60]	; 0x3c
  10275e:	07c0      	lsls	r0, r0, #31
  102760:	d408      	bmi.n	102774 <_svfprintf_r+0x3e8>
  102762:	991f      	ldr	r1, [sp, #124]	; 0x7c
  102764:	9a05      	ldr	r2, [sp, #20]
  102766:	9b0c      	ldr	r3, [sp, #48]	; 0x30
  102768:	1a89      	subs	r1, r1, r2
  10276a:	910d      	str	r1, [sp, #52]	; 0x34
  10276c:	9d1d      	ldr	r5, [sp, #116]	; 0x74
  10276e:	2b47      	cmp	r3, #71	; 0x47
  102770:	d028      	beq.n	1027c4 <_svfprintf_r+0x438>
  102772:	e030      	b.n	1027d6 <_svfprintf_r+0x44a>
  102774:	9805      	ldr	r0, [sp, #20]
  102776:	990d      	ldr	r1, [sp, #52]	; 0x34
  102778:	1946      	adds	r6, r0, r5
  10277a:	2900      	cmp	r1, #0
  10277c:	d00f      	beq.n	10279e <_svfprintf_r+0x412>
  10277e:	7803      	ldrb	r3, [r0, #0]
  102780:	2b30      	cmp	r3, #48	; 0x30
  102782:	d10a      	bne.n	10279a <_svfprintf_r+0x40e>
  102784:	980a      	ldr	r0, [sp, #40]	; 0x28
  102786:	9916      	ldr	r1, [sp, #88]	; 0x58
  102788:	4b78      	ldr	r3, [pc, #480]	; (10296c <_svfprintf_r+0x5e0>)
  10278a:	4a77      	ldr	r2, [pc, #476]	; (102968 <_svfprintf_r+0x5dc>)
  10278c:	f006 fa1c 	bl	108bc8 <__cmpdf2>
  102790:	2800      	cmp	r0, #0
  102792:	d002      	beq.n	10279a <_svfprintf_r+0x40e>
  102794:	2301      	movs	r3, #1
  102796:	1b5d      	subs	r5, r3, r5
  102798:	951d      	str	r5, [sp, #116]	; 0x74
  10279a:	9a1d      	ldr	r2, [sp, #116]	; 0x74
  10279c:	18b6      	adds	r6, r6, r2
  10279e:	980a      	ldr	r0, [sp, #40]	; 0x28
  1027a0:	9916      	ldr	r1, [sp, #88]	; 0x58
  1027a2:	4b72      	ldr	r3, [pc, #456]	; (10296c <_svfprintf_r+0x5e0>)
  1027a4:	4a70      	ldr	r2, [pc, #448]	; (102968 <_svfprintf_r+0x5dc>)
  1027a6:	f006 fa0f 	bl	108bc8 <__cmpdf2>
  1027aa:	2800      	cmp	r0, #0
  1027ac:	d105      	bne.n	1027ba <_svfprintf_r+0x42e>
  1027ae:	961f      	str	r6, [sp, #124]	; 0x7c
  1027b0:	e003      	b.n	1027ba <_svfprintf_r+0x42e>
  1027b2:	701a      	strb	r2, [r3, #0]
  1027b4:	3301      	adds	r3, #1
  1027b6:	931f      	str	r3, [sp, #124]	; 0x7c
  1027b8:	e000      	b.n	1027bc <_svfprintf_r+0x430>
  1027ba:	2230      	movs	r2, #48	; 0x30
  1027bc:	9b1f      	ldr	r3, [sp, #124]	; 0x7c
  1027be:	42b3      	cmp	r3, r6
  1027c0:	d3f7      	bcc.n	1027b2 <_svfprintf_r+0x426>
  1027c2:	e7ce      	b.n	102762 <_svfprintf_r+0x3d6>
  1027c4:	1ceb      	adds	r3, r5, #3
  1027c6:	db02      	blt.n	1027ce <_svfprintf_r+0x442>
  1027c8:	9807      	ldr	r0, [sp, #28]
  1027ca:	4285      	cmp	r5, r0
  1027cc:	dd6e      	ble.n	1028ac <_svfprintf_r+0x520>
  1027ce:	990b      	ldr	r1, [sp, #44]	; 0x2c
  1027d0:	3902      	subs	r1, #2
  1027d2:	910b      	str	r1, [sp, #44]	; 0x2c
  1027d4:	e002      	b.n	1027dc <_svfprintf_r+0x450>
  1027d6:	9a0b      	ldr	r2, [sp, #44]	; 0x2c
  1027d8:	2a65      	cmp	r2, #101	; 0x65
  1027da:	dc4b      	bgt.n	102874 <_svfprintf_r+0x4e8>
  1027dc:	a80b      	add	r0, sp, #44	; 0x2c
  1027de:	7800      	ldrb	r0, [r0, #0]
  1027e0:	ab20      	add	r3, sp, #128	; 0x80
  1027e2:	3d01      	subs	r5, #1
  1027e4:	7018      	strb	r0, [r3, #0]
  1027e6:	951d      	str	r5, [sp, #116]	; 0x74
  1027e8:	3301      	adds	r3, #1
  1027ea:	222b      	movs	r2, #43	; 0x2b
  1027ec:	2d00      	cmp	r5, #0
  1027ee:	da02      	bge.n	1027f6 <_svfprintf_r+0x46a>
  1027f0:	426d      	negs	r5, r5
  1027f2:	222d      	movs	r2, #45	; 0x2d
  1027f4:	e7ff      	b.n	1027f6 <_svfprintf_r+0x46a>
  1027f6:	701a      	strb	r2, [r3, #0]
  1027f8:	2d09      	cmp	r5, #9
  1027fa:	dd20      	ble.n	10283e <_svfprintf_r+0x4b2>
  1027fc:	466e      	mov	r6, sp
  1027fe:	368e      	adds	r6, #142	; 0x8e
  102800:	1c28      	adds	r0, r5, #0
  102802:	210a      	movs	r1, #10
  102804:	9607      	str	r6, [sp, #28]
  102806:	f005 fceb 	bl	1081e0 <__modsi3>
  10280a:	3030      	adds	r0, #48	; 0x30
  10280c:	7030      	strb	r0, [r6, #0]
  10280e:	210a      	movs	r1, #10
  102810:	1c28      	adds	r0, r5, #0
  102812:	f005 fc91 	bl	108138 <__aeabi_idiv>
  102816:	3e01      	subs	r6, #1
  102818:	1c05      	adds	r5, r0, #0
  10281a:	2809      	cmp	r0, #9
  10281c:	dcf0      	bgt.n	102800 <_svfprintf_r+0x474>
  10281e:	9807      	ldr	r0, [sp, #28]
  102820:	3530      	adds	r5, #48	; 0x30
  102822:	3801      	subs	r0, #1
  102824:	466b      	mov	r3, sp
  102826:	466a      	mov	r2, sp
  102828:	7005      	strb	r5, [r0, #0]
  10282a:	3382      	adds	r3, #130	; 0x82
  10282c:	328f      	adds	r2, #143	; 0x8f
  10282e:	e003      	b.n	102838 <_svfprintf_r+0x4ac>
  102830:	7801      	ldrb	r1, [r0, #0]
  102832:	3001      	adds	r0, #1
  102834:	7019      	strb	r1, [r3, #0]
  102836:	3301      	adds	r3, #1
  102838:	4290      	cmp	r0, r2
  10283a:	d3f9      	bcc.n	102830 <_svfprintf_r+0x4a4>
  10283c:	e006      	b.n	10284c <_svfprintf_r+0x4c0>
  10283e:	2230      	movs	r2, #48	; 0x30
  102840:	466b      	mov	r3, sp
  102842:	3382      	adds	r3, #130	; 0x82
  102844:	18ad      	adds	r5, r5, r2
  102846:	701a      	strb	r2, [r3, #0]
  102848:	705d      	strb	r5, [r3, #1]
  10284a:	ab21      	add	r3, sp, #132	; 0x84
  10284c:	aa20      	add	r2, sp, #128	; 0x80
  10284e:	990d      	ldr	r1, [sp, #52]	; 0x34
  102850:	1a9a      	subs	r2, r3, r2
  102852:	1851      	adds	r1, r2, r1
  102854:	9218      	str	r2, [sp, #96]	; 0x60
  102856:	9a0d      	ldr	r2, [sp, #52]	; 0x34
  102858:	910a      	str	r1, [sp, #40]	; 0x28
  10285a:	2a01      	cmp	r2, #1
  10285c:	dc04      	bgt.n	102868 <_svfprintf_r+0x4dc>
  10285e:	980f      	ldr	r0, [sp, #60]	; 0x3c
  102860:	2300      	movs	r3, #0
  102862:	9307      	str	r3, [sp, #28]
  102864:	07c0      	lsls	r0, r0, #31
  102866:	d53a      	bpl.n	1028de <_svfprintf_r+0x552>
  102868:	990a      	ldr	r1, [sp, #40]	; 0x28
  10286a:	2200      	movs	r2, #0
  10286c:	3101      	adds	r1, #1
  10286e:	910a      	str	r1, [sp, #40]	; 0x28
  102870:	9207      	str	r2, [sp, #28]
  102872:	e034      	b.n	1028de <_svfprintf_r+0x552>
  102874:	9b0b      	ldr	r3, [sp, #44]	; 0x2c
  102876:	2b66      	cmp	r3, #102	; 0x66
  102878:	d118      	bne.n	1028ac <_svfprintf_r+0x520>
  10287a:	950a      	str	r5, [sp, #40]	; 0x28
  10287c:	2d00      	cmp	r5, #0
  10287e:	dd0a      	ble.n	102896 <_svfprintf_r+0x50a>
  102880:	9807      	ldr	r0, [sp, #28]
  102882:	2800      	cmp	r0, #0
  102884:	d102      	bne.n	10288c <_svfprintf_r+0x500>
  102886:	990f      	ldr	r1, [sp, #60]	; 0x3c
  102888:	07c9      	lsls	r1, r1, #31
  10288a:	d525      	bpl.n	1028d8 <_svfprintf_r+0x54c>
  10288c:	9b07      	ldr	r3, [sp, #28]
  10288e:	3301      	adds	r3, #1
  102890:	18eb      	adds	r3, r5, r3
  102892:	930a      	str	r3, [sp, #40]	; 0x28
  102894:	e020      	b.n	1028d8 <_svfprintf_r+0x54c>
  102896:	9a07      	ldr	r2, [sp, #28]
  102898:	2a00      	cmp	r2, #0
  10289a:	d104      	bne.n	1028a6 <_svfprintf_r+0x51a>
  10289c:	980f      	ldr	r0, [sp, #60]	; 0x3c
  10289e:	2301      	movs	r3, #1
  1028a0:	930a      	str	r3, [sp, #40]	; 0x28
  1028a2:	4218      	tst	r0, r3
  1028a4:	d018      	beq.n	1028d8 <_svfprintf_r+0x54c>
  1028a6:	9907      	ldr	r1, [sp, #28]
  1028a8:	3102      	adds	r1, #2
  1028aa:	e009      	b.n	1028c0 <_svfprintf_r+0x534>
  1028ac:	9a0d      	ldr	r2, [sp, #52]	; 0x34
  1028ae:	950a      	str	r5, [sp, #40]	; 0x28
  1028b0:	4295      	cmp	r5, r2
  1028b2:	db07      	blt.n	1028c4 <_svfprintf_r+0x538>
  1028b4:	980f      	ldr	r0, [sp, #60]	; 0x3c
  1028b6:	2367      	movs	r3, #103	; 0x67
  1028b8:	9310      	str	r3, [sp, #64]	; 0x40
  1028ba:	07c0      	lsls	r0, r0, #31
  1028bc:	d50c      	bpl.n	1028d8 <_svfprintf_r+0x54c>
  1028be:	1c69      	adds	r1, r5, #1
  1028c0:	910a      	str	r1, [sp, #40]	; 0x28
  1028c2:	e009      	b.n	1028d8 <_svfprintf_r+0x54c>
  1028c4:	2301      	movs	r3, #1
  1028c6:	2d00      	cmp	r5, #0
  1028c8:	dc01      	bgt.n	1028ce <_svfprintf_r+0x542>
  1028ca:	2302      	movs	r3, #2
  1028cc:	1b5b      	subs	r3, r3, r5
  1028ce:	9a0d      	ldr	r2, [sp, #52]	; 0x34
  1028d0:	18d3      	adds	r3, r2, r3
  1028d2:	930a      	str	r3, [sp, #40]	; 0x28
  1028d4:	2367      	movs	r3, #103	; 0x67
  1028d6:	9310      	str	r3, [sp, #64]	; 0x40
  1028d8:	9810      	ldr	r0, [sp, #64]	; 0x40
  1028da:	9507      	str	r5, [sp, #28]
  1028dc:	900b      	str	r0, [sp, #44]	; 0x2c
  1028de:	991a      	ldr	r1, [sp, #104]	; 0x68
  1028e0:	2500      	movs	r5, #0
  1028e2:	42a9      	cmp	r1, r5
  1028e4:	d100      	bne.n	1028e8 <_svfprintf_r+0x55c>
  1028e6:	e110      	b.n	102b0a <_svfprintf_r+0x77e>
  1028e8:	466b      	mov	r3, sp
  1028ea:	222d      	movs	r2, #45	; 0x2d
  1028ec:	336f      	adds	r3, #111	; 0x6f
  1028ee:	701a      	strb	r2, [r3, #0]
  1028f0:	e10b      	b.n	102b0a <_svfprintf_r+0x77e>
  1028f2:	9a06      	ldr	r2, [sp, #24]
  1028f4:	1d3b      	adds	r3, r7, #4
  1028f6:	06d2      	lsls	r2, r2, #27
  1028f8:	d503      	bpl.n	102902 <_svfprintf_r+0x576>
  1028fa:	683a      	ldr	r2, [r7, #0]
  1028fc:	9814      	ldr	r0, [sp, #80]	; 0x50
  1028fe:	6010      	str	r0, [r2, #0]
  102900:	e009      	b.n	102916 <_svfprintf_r+0x58a>
  102902:	9906      	ldr	r1, [sp, #24]
  102904:	683a      	ldr	r2, [r7, #0]
  102906:	0649      	lsls	r1, r1, #25
  102908:	d503      	bpl.n	102912 <_svfprintf_r+0x586>
  10290a:	a814      	add	r0, sp, #80	; 0x50
  10290c:	8800      	ldrh	r0, [r0, #0]
  10290e:	8010      	strh	r0, [r2, #0]
  102910:	e001      	b.n	102916 <_svfprintf_r+0x58a>
  102912:	9914      	ldr	r1, [sp, #80]	; 0x50
  102914:	6011      	str	r1, [r2, #0]
  102916:	1c1f      	adds	r7, r3, #0
  102918:	e56a      	b.n	1023f0 <_svfprintf_r+0x64>
  10291a:	9a06      	ldr	r2, [sp, #24]
  10291c:	2310      	movs	r3, #16
  10291e:	431a      	orrs	r2, r3
  102920:	9206      	str	r2, [sp, #24]
  102922:	9b06      	ldr	r3, [sp, #24]
  102924:	2110      	movs	r1, #16
  102926:	4019      	ands	r1, r3
  102928:	1d3a      	adds	r2, r7, #4
  10292a:	2900      	cmp	r1, #0
  10292c:	d003      	beq.n	102936 <_svfprintf_r+0x5aa>
  10292e:	683d      	ldr	r5, [r7, #0]
  102930:	1c17      	adds	r7, r2, #0
  102932:	2300      	movs	r3, #0
  102934:	e077      	b.n	102a26 <_svfprintf_r+0x69a>
  102936:	9806      	ldr	r0, [sp, #24]
  102938:	2340      	movs	r3, #64	; 0x40
  10293a:	4003      	ands	r3, r0
  10293c:	d001      	beq.n	102942 <_svfprintf_r+0x5b6>
  10293e:	883d      	ldrh	r5, [r7, #0]
  102940:	e7f6      	b.n	102930 <_svfprintf_r+0x5a4>
  102942:	683d      	ldr	r5, [r7, #0]
  102944:	1c17      	adds	r7, r2, #0
  102946:	e06e      	b.n	102a26 <_svfprintf_r+0x69a>
  102948:	9906      	ldr	r1, [sp, #24]
  10294a:	2302      	movs	r3, #2
  10294c:	4319      	orrs	r1, r3
  10294e:	aa1c      	add	r2, sp, #112	; 0x70
  102950:	9106      	str	r1, [sp, #24]
  102952:	2130      	movs	r1, #48	; 0x30
  102954:	683d      	ldr	r5, [r7, #0]
  102956:	7011      	strb	r1, [r2, #0]
  102958:	2178      	movs	r1, #120	; 0x78
  10295a:	7051      	strb	r1, [r2, #1]
  10295c:	4a08      	ldr	r2, [pc, #32]	; (102980 <_svfprintf_r+0x5f4>)
  10295e:	3704      	adds	r7, #4
  102960:	9219      	str	r2, [sp, #100]	; 0x64
  102962:	910b      	str	r1, [sp, #44]	; 0x2c
  102964:	e05f      	b.n	102a26 <_svfprintf_r+0x69a>
  102966:	46c0      	nop			; (mov r8, r8)
	...
  102970:	001091da 			; <UNDEFINED> instruction: 0x001091da
  102974:	001091de 			; <UNDEFINED> instruction: 0x001091de
  102978:	001091e2 	andseq	r9, r0, r2, ror #3
  10297c:	001091e6 	andseq	r9, r0, r6, ror #3
  102980:	001091fb 			; <UNDEFINED> instruction: 0x001091fb
  102984:	466a      	mov	r2, sp
  102986:	2500      	movs	r5, #0
  102988:	326f      	adds	r2, #111	; 0x6f
  10298a:	7015      	strb	r5, [r2, #0]
  10298c:	1c3b      	adds	r3, r7, #0
  10298e:	681b      	ldr	r3, [r3, #0]
  102990:	9305      	str	r3, [sp, #20]
  102992:	9b07      	ldr	r3, [sp, #28]
  102994:	3704      	adds	r7, #4
  102996:	9805      	ldr	r0, [sp, #20]
  102998:	42ab      	cmp	r3, r5
  10299a:	db0e      	blt.n	1029ba <_svfprintf_r+0x62e>
  10299c:	1c29      	adds	r1, r5, #0
  10299e:	1c1a      	adds	r2, r3, #0
  1029a0:	f003 f974 	bl	105c8c <memchr>
  1029a4:	42a8      	cmp	r0, r5
  1029a6:	d100      	bne.n	1029aa <_svfprintf_r+0x61e>
  1029a8:	e0aa      	b.n	102b00 <_svfprintf_r+0x774>
  1029aa:	9905      	ldr	r1, [sp, #20]
  1029ac:	9a07      	ldr	r2, [sp, #28]
  1029ae:	1a40      	subs	r0, r0, r1
  1029b0:	900a      	str	r0, [sp, #40]	; 0x28
  1029b2:	4290      	cmp	r0, r2
  1029b4:	dd00      	ble.n	1029b8 <_svfprintf_r+0x62c>
  1029b6:	e0a5      	b.n	102b04 <_svfprintf_r+0x778>
  1029b8:	e0a6      	b.n	102b08 <_svfprintf_r+0x77c>
  1029ba:	f003 fe67 	bl	10668c <strlen>
  1029be:	900a      	str	r0, [sp, #40]	; 0x28
  1029c0:	e0a2      	b.n	102b08 <_svfprintf_r+0x77c>
  1029c2:	9806      	ldr	r0, [sp, #24]
  1029c4:	2310      	movs	r3, #16
  1029c6:	4318      	orrs	r0, r3
  1029c8:	9006      	str	r0, [sp, #24]
  1029ca:	9906      	ldr	r1, [sp, #24]
  1029cc:	1d3b      	adds	r3, r7, #4
  1029ce:	06c9      	lsls	r1, r1, #27
  1029d0:	d500      	bpl.n	1029d4 <_svfprintf_r+0x648>
  1029d2:	e004      	b.n	1029de <_svfprintf_r+0x652>
  1029d4:	9a06      	ldr	r2, [sp, #24]
  1029d6:	0652      	lsls	r2, r2, #25
  1029d8:	d501      	bpl.n	1029de <_svfprintf_r+0x652>
  1029da:	883d      	ldrh	r5, [r7, #0]
  1029dc:	e000      	b.n	1029e0 <_svfprintf_r+0x654>
  1029de:	683d      	ldr	r5, [r7, #0]
  1029e0:	1c1f      	adds	r7, r3, #0
  1029e2:	2301      	movs	r3, #1
  1029e4:	e01f      	b.n	102a26 <_svfprintf_r+0x69a>
  1029e6:	4bbe      	ldr	r3, [pc, #760]	; (102ce0 <_svfprintf_r+0x954>)
  1029e8:	9319      	str	r3, [sp, #100]	; 0x64
  1029ea:	e001      	b.n	1029f0 <_svfprintf_r+0x664>
  1029ec:	48bd      	ldr	r0, [pc, #756]	; (102ce4 <_svfprintf_r+0x958>)
  1029ee:	9019      	str	r0, [sp, #100]	; 0x64
  1029f0:	9906      	ldr	r1, [sp, #24]
  1029f2:	1d3b      	adds	r3, r7, #4
  1029f4:	06c9      	lsls	r1, r1, #27
  1029f6:	d500      	bpl.n	1029fa <_svfprintf_r+0x66e>
  1029f8:	e004      	b.n	102a04 <_svfprintf_r+0x678>
  1029fa:	9a06      	ldr	r2, [sp, #24]
  1029fc:	0652      	lsls	r2, r2, #25
  1029fe:	d501      	bpl.n	102a04 <_svfprintf_r+0x678>
  102a00:	883d      	ldrh	r5, [r7, #0]
  102a02:	e000      	b.n	102a06 <_svfprintf_r+0x67a>
  102a04:	683d      	ldr	r5, [r7, #0]
  102a06:	9806      	ldr	r0, [sp, #24]
  102a08:	1c1f      	adds	r7, r3, #0
  102a0a:	2302      	movs	r3, #2
  102a0c:	07c0      	lsls	r0, r0, #31
  102a0e:	d50a      	bpl.n	102a26 <_svfprintf_r+0x69a>
  102a10:	2d00      	cmp	r5, #0
  102a12:	d008      	beq.n	102a26 <_svfprintf_r+0x69a>
  102a14:	aa1c      	add	r2, sp, #112	; 0x70
  102a16:	2130      	movs	r1, #48	; 0x30
  102a18:	7011      	strb	r1, [r2, #0]
  102a1a:	a90b      	add	r1, sp, #44	; 0x2c
  102a1c:	7809      	ldrb	r1, [r1, #0]
  102a1e:	7051      	strb	r1, [r2, #1]
  102a20:	9a06      	ldr	r2, [sp, #24]
  102a22:	431a      	orrs	r2, r3
  102a24:	9206      	str	r2, [sp, #24]
  102a26:	2100      	movs	r1, #0
  102a28:	466a      	mov	r2, sp
  102a2a:	326f      	adds	r2, #111	; 0x6f
  102a2c:	7011      	strb	r1, [r2, #0]
  102a2e:	9807      	ldr	r0, [sp, #28]
  102a30:	2800      	cmp	r0, #0
  102a32:	db03      	blt.n	102a3c <_svfprintf_r+0x6b0>
  102a34:	9906      	ldr	r1, [sp, #24]
  102a36:	2280      	movs	r2, #128	; 0x80
  102a38:	4391      	bics	r1, r2
  102a3a:	9106      	str	r1, [sp, #24]
  102a3c:	9a07      	ldr	r2, [sp, #28]
  102a3e:	2a00      	cmp	r2, #0
  102a40:	d101      	bne.n	102a46 <_svfprintf_r+0x6ba>
  102a42:	2d00      	cmp	r5, #0
  102a44:	d039      	beq.n	102aba <_svfprintf_r+0x72e>
  102a46:	466e      	mov	r6, sp
  102a48:	36c3      	adds	r6, #195	; 0xc3
  102a4a:	2b01      	cmp	r3, #1
  102a4c:	d014      	beq.n	102a78 <_svfprintf_r+0x6ec>
  102a4e:	2b02      	cmp	r3, #2
  102a50:	d027      	beq.n	102aa2 <_svfprintf_r+0x716>
  102a52:	2207      	movs	r2, #7
  102a54:	1c2b      	adds	r3, r5, #0
  102a56:	4013      	ands	r3, r2
  102a58:	3330      	adds	r3, #48	; 0x30
  102a5a:	9605      	str	r6, [sp, #20]
  102a5c:	7033      	strb	r3, [r6, #0]
  102a5e:	08ed      	lsrs	r5, r5, #3
  102a60:	3e01      	subs	r6, #1
  102a62:	2d00      	cmp	r5, #0
  102a64:	d1f6      	bne.n	102a54 <_svfprintf_r+0x6c8>
  102a66:	9806      	ldr	r0, [sp, #24]
  102a68:	07c0      	lsls	r0, r0, #31
  102a6a:	d532      	bpl.n	102ad2 <_svfprintf_r+0x746>
  102a6c:	2b30      	cmp	r3, #48	; 0x30
  102a6e:	d030      	beq.n	102ad2 <_svfprintf_r+0x746>
  102a70:	2230      	movs	r2, #48	; 0x30
  102a72:	9605      	str	r6, [sp, #20]
  102a74:	7032      	strb	r2, [r6, #0]
  102a76:	e02c      	b.n	102ad2 <_svfprintf_r+0x746>
  102a78:	2d09      	cmp	r5, #9
  102a7a:	d802      	bhi.n	102a82 <_svfprintf_r+0x6f6>
  102a7c:	3530      	adds	r5, #48	; 0x30
  102a7e:	7035      	strb	r5, [r6, #0]
  102a80:	e026      	b.n	102ad0 <_svfprintf_r+0x744>
  102a82:	1c28      	adds	r0, r5, #0
  102a84:	210a      	movs	r1, #10
  102a86:	9605      	str	r6, [sp, #20]
  102a88:	f7ff f954 	bl	101d34 <__umodsi3>
  102a8c:	3030      	adds	r0, #48	; 0x30
  102a8e:	7030      	strb	r0, [r6, #0]
  102a90:	210a      	movs	r1, #10
  102a92:	1c28      	adds	r0, r5, #0
  102a94:	f7ff f906 	bl	101ca4 <__aeabi_uidiv>
  102a98:	3e01      	subs	r6, #1
  102a9a:	1c05      	adds	r5, r0, #0
  102a9c:	2800      	cmp	r0, #0
  102a9e:	d1f0      	bne.n	102a82 <_svfprintf_r+0x6f6>
  102aa0:	e017      	b.n	102ad2 <_svfprintf_r+0x746>
  102aa2:	220f      	movs	r2, #15
  102aa4:	1c2b      	adds	r3, r5, #0
  102aa6:	9919      	ldr	r1, [sp, #100]	; 0x64
  102aa8:	4013      	ands	r3, r2
  102aaa:	5ccb      	ldrb	r3, [r1, r3]
  102aac:	9605      	str	r6, [sp, #20]
  102aae:	7033      	strb	r3, [r6, #0]
  102ab0:	092d      	lsrs	r5, r5, #4
  102ab2:	3e01      	subs	r6, #1
  102ab4:	2d00      	cmp	r5, #0
  102ab6:	d1f5      	bne.n	102aa4 <_svfprintf_r+0x718>
  102ab8:	e00b      	b.n	102ad2 <_svfprintf_r+0x746>
  102aba:	aa31      	add	r2, sp, #196	; 0xc4
  102abc:	9205      	str	r2, [sp, #20]
  102abe:	2b00      	cmp	r3, #0
  102ac0:	d107      	bne.n	102ad2 <_svfprintf_r+0x746>
  102ac2:	9b06      	ldr	r3, [sp, #24]
  102ac4:	07db      	lsls	r3, r3, #31
  102ac6:	d504      	bpl.n	102ad2 <_svfprintf_r+0x746>
  102ac8:	466e      	mov	r6, sp
  102aca:	36c3      	adds	r6, #195	; 0xc3
  102acc:	2330      	movs	r3, #48	; 0x30
  102ace:	7033      	strb	r3, [r6, #0]
  102ad0:	9605      	str	r6, [sp, #20]
  102ad2:	9805      	ldr	r0, [sp, #20]
  102ad4:	ad31      	add	r5, sp, #196	; 0xc4
  102ad6:	1a2d      	subs	r5, r5, r0
  102ad8:	2100      	movs	r1, #0
  102ada:	950a      	str	r5, [sp, #40]	; 0x28
  102adc:	9d07      	ldr	r5, [sp, #28]
  102ade:	9107      	str	r1, [sp, #28]
  102ae0:	e013      	b.n	102b0a <_svfprintf_r+0x77e>
  102ae2:	9a0b      	ldr	r2, [sp, #44]	; 0x2c
  102ae4:	2a00      	cmp	r2, #0
  102ae6:	d100      	bne.n	102aea <_svfprintf_r+0x75e>
  102ae8:	e3b1      	b.n	10324e <_svfprintf_r+0xec2>
  102aea:	466b      	mov	r3, sp
  102aec:	ae27      	add	r6, sp, #156	; 0x9c
  102aee:	2500      	movs	r5, #0
  102af0:	336f      	adds	r3, #111	; 0x6f
  102af2:	2001      	movs	r0, #1
  102af4:	7032      	strb	r2, [r6, #0]
  102af6:	701d      	strb	r5, [r3, #0]
  102af8:	900a      	str	r0, [sp, #40]	; 0x28
  102afa:	9507      	str	r5, [sp, #28]
  102afc:	9605      	str	r6, [sp, #20]
  102afe:	e004      	b.n	102b0a <_svfprintf_r+0x77e>
  102b00:	9907      	ldr	r1, [sp, #28]
  102b02:	e5cc      	b.n	10269e <_svfprintf_r+0x312>
  102b04:	9a07      	ldr	r2, [sp, #28]
  102b06:	920a      	str	r2, [sp, #40]	; 0x28
  102b08:	9507      	str	r5, [sp, #28]
  102b0a:	9b0a      	ldr	r3, [sp, #40]	; 0x28
  102b0c:	930f      	str	r3, [sp, #60]	; 0x3c
  102b0e:	42ab      	cmp	r3, r5
  102b10:	da00      	bge.n	102b14 <_svfprintf_r+0x788>
  102b12:	950f      	str	r5, [sp, #60]	; 0x3c
  102b14:	466b      	mov	r3, sp
  102b16:	336f      	adds	r3, #111	; 0x6f
  102b18:	781b      	ldrb	r3, [r3, #0]
  102b1a:	980f      	ldr	r0, [sp, #60]	; 0x3c
  102b1c:	1e5a      	subs	r2, r3, #1
  102b1e:	4193      	sbcs	r3, r2
  102b20:	9906      	ldr	r1, [sp, #24]
  102b22:	18c0      	adds	r0, r0, r3
  102b24:	2302      	movs	r3, #2
  102b26:	4019      	ands	r1, r3
  102b28:	900f      	str	r0, [sp, #60]	; 0x3c
  102b2a:	910c      	str	r1, [sp, #48]	; 0x30
  102b2c:	d001      	beq.n	102b32 <_svfprintf_r+0x7a6>
  102b2e:	18c0      	adds	r0, r0, r3
  102b30:	900f      	str	r0, [sp, #60]	; 0x3c
  102b32:	9a06      	ldr	r2, [sp, #24]
  102b34:	2384      	movs	r3, #132	; 0x84
  102b36:	401a      	ands	r2, r3
  102b38:	9216      	str	r2, [sp, #88]	; 0x58
  102b3a:	d133      	bne.n	102ba4 <_svfprintf_r+0x818>
  102b3c:	9b13      	ldr	r3, [sp, #76]	; 0x4c
  102b3e:	980f      	ldr	r0, [sp, #60]	; 0x3c
  102b40:	1a1e      	subs	r6, r3, r0
  102b42:	2e00      	cmp	r6, #0
  102b44:	dc16      	bgt.n	102b74 <_svfprintf_r+0x7e8>
  102b46:	e02d      	b.n	102ba4 <_svfprintf_r+0x818>
  102b48:	2310      	movs	r3, #16
  102b4a:	6063      	str	r3, [r4, #4]
  102b4c:	9b26      	ldr	r3, [sp, #152]	; 0x98
  102b4e:	3310      	adds	r3, #16
  102b50:	9326      	str	r3, [sp, #152]	; 0x98
  102b52:	9b25      	ldr	r3, [sp, #148]	; 0x94
  102b54:	3301      	adds	r3, #1
  102b56:	9325      	str	r3, [sp, #148]	; 0x94
  102b58:	2b07      	cmp	r3, #7
  102b5a:	dc01      	bgt.n	102b60 <_svfprintf_r+0x7d4>
  102b5c:	3408      	adds	r4, #8
  102b5e:	e008      	b.n	102b72 <_svfprintf_r+0x7e6>
  102b60:	9809      	ldr	r0, [sp, #36]	; 0x24
  102b62:	9908      	ldr	r1, [sp, #32]
  102b64:	aa24      	add	r2, sp, #144	; 0x90
  102b66:	f003 fd99 	bl	10669c <__ssprint_r>
  102b6a:	2800      	cmp	r0, #0
  102b6c:	d000      	beq.n	102b70 <_svfprintf_r+0x7e4>
  102b6e:	e376      	b.n	10325e <_svfprintf_r+0xed2>
  102b70:	ac31      	add	r4, sp, #196	; 0xc4
  102b72:	3e10      	subs	r6, #16
  102b74:	4b5c      	ldr	r3, [pc, #368]	; (102ce8 <_svfprintf_r+0x95c>)
  102b76:	6023      	str	r3, [r4, #0]
  102b78:	2e10      	cmp	r6, #16
  102b7a:	dce5      	bgt.n	102b48 <_svfprintf_r+0x7bc>
  102b7c:	9926      	ldr	r1, [sp, #152]	; 0x98
  102b7e:	9b25      	ldr	r3, [sp, #148]	; 0x94
  102b80:	6066      	str	r6, [r4, #4]
  102b82:	3301      	adds	r3, #1
  102b84:	198e      	adds	r6, r1, r6
  102b86:	9626      	str	r6, [sp, #152]	; 0x98
  102b88:	9325      	str	r3, [sp, #148]	; 0x94
  102b8a:	2b07      	cmp	r3, #7
  102b8c:	dc01      	bgt.n	102b92 <_svfprintf_r+0x806>
  102b8e:	3408      	adds	r4, #8
  102b90:	e008      	b.n	102ba4 <_svfprintf_r+0x818>
  102b92:	9809      	ldr	r0, [sp, #36]	; 0x24
  102b94:	9908      	ldr	r1, [sp, #32]
  102b96:	aa24      	add	r2, sp, #144	; 0x90
  102b98:	f003 fd80 	bl	10669c <__ssprint_r>
  102b9c:	2800      	cmp	r0, #0
  102b9e:	d000      	beq.n	102ba2 <_svfprintf_r+0x816>
  102ba0:	e35d      	b.n	10325e <_svfprintf_r+0xed2>
  102ba2:	ac31      	add	r4, sp, #196	; 0xc4
  102ba4:	466b      	mov	r3, sp
  102ba6:	336f      	adds	r3, #111	; 0x6f
  102ba8:	781a      	ldrb	r2, [r3, #0]
  102baa:	2a00      	cmp	r2, #0
  102bac:	d015      	beq.n	102bda <_svfprintf_r+0x84e>
  102bae:	6023      	str	r3, [r4, #0]
  102bb0:	2301      	movs	r3, #1
  102bb2:	6063      	str	r3, [r4, #4]
  102bb4:	9b26      	ldr	r3, [sp, #152]	; 0x98
  102bb6:	3301      	adds	r3, #1
  102bb8:	9326      	str	r3, [sp, #152]	; 0x98
  102bba:	9b25      	ldr	r3, [sp, #148]	; 0x94
  102bbc:	3301      	adds	r3, #1
  102bbe:	9325      	str	r3, [sp, #148]	; 0x94
  102bc0:	2b07      	cmp	r3, #7
  102bc2:	dc01      	bgt.n	102bc8 <_svfprintf_r+0x83c>
  102bc4:	3408      	adds	r4, #8
  102bc6:	e008      	b.n	102bda <_svfprintf_r+0x84e>
  102bc8:	9809      	ldr	r0, [sp, #36]	; 0x24
  102bca:	9908      	ldr	r1, [sp, #32]
  102bcc:	aa24      	add	r2, sp, #144	; 0x90
  102bce:	f003 fd65 	bl	10669c <__ssprint_r>
  102bd2:	2800      	cmp	r0, #0
  102bd4:	d000      	beq.n	102bd8 <_svfprintf_r+0x84c>
  102bd6:	e342      	b.n	10325e <_svfprintf_r+0xed2>
  102bd8:	ac31      	add	r4, sp, #196	; 0xc4
  102bda:	9a0c      	ldr	r2, [sp, #48]	; 0x30
  102bdc:	2a00      	cmp	r2, #0
  102bde:	d016      	beq.n	102c0e <_svfprintf_r+0x882>
  102be0:	ab1c      	add	r3, sp, #112	; 0x70
  102be2:	6023      	str	r3, [r4, #0]
  102be4:	2302      	movs	r3, #2
  102be6:	6063      	str	r3, [r4, #4]
  102be8:	9b26      	ldr	r3, [sp, #152]	; 0x98
  102bea:	3302      	adds	r3, #2
  102bec:	9326      	str	r3, [sp, #152]	; 0x98
  102bee:	9b25      	ldr	r3, [sp, #148]	; 0x94
  102bf0:	3301      	adds	r3, #1
  102bf2:	9325      	str	r3, [sp, #148]	; 0x94
  102bf4:	2b07      	cmp	r3, #7
  102bf6:	dc01      	bgt.n	102bfc <_svfprintf_r+0x870>
  102bf8:	3408      	adds	r4, #8
  102bfa:	e008      	b.n	102c0e <_svfprintf_r+0x882>
  102bfc:	9809      	ldr	r0, [sp, #36]	; 0x24
  102bfe:	9908      	ldr	r1, [sp, #32]
  102c00:	aa24      	add	r2, sp, #144	; 0x90
  102c02:	f003 fd4b 	bl	10669c <__ssprint_r>
  102c06:	2800      	cmp	r0, #0
  102c08:	d000      	beq.n	102c0c <_svfprintf_r+0x880>
  102c0a:	e328      	b.n	10325e <_svfprintf_r+0xed2>
  102c0c:	ac31      	add	r4, sp, #196	; 0xc4
  102c0e:	9b16      	ldr	r3, [sp, #88]	; 0x58
  102c10:	2b80      	cmp	r3, #128	; 0x80
  102c12:	d136      	bne.n	102c82 <_svfprintf_r+0x8f6>
  102c14:	9813      	ldr	r0, [sp, #76]	; 0x4c
  102c16:	990f      	ldr	r1, [sp, #60]	; 0x3c
  102c18:	1a46      	subs	r6, r0, r1
  102c1a:	2e00      	cmp	r6, #0
  102c1c:	dc18      	bgt.n	102c50 <_svfprintf_r+0x8c4>
  102c1e:	e030      	b.n	102c82 <_svfprintf_r+0x8f6>
  102c20:	2310      	movs	r3, #16
  102c22:	6063      	str	r3, [r4, #4]
  102c24:	9b26      	ldr	r3, [sp, #152]	; 0x98
  102c26:	4a31      	ldr	r2, [pc, #196]	; (102cec <_svfprintf_r+0x960>)
  102c28:	3310      	adds	r3, #16
  102c2a:	6022      	str	r2, [r4, #0]
  102c2c:	9326      	str	r3, [sp, #152]	; 0x98
  102c2e:	9b25      	ldr	r3, [sp, #148]	; 0x94
  102c30:	3301      	adds	r3, #1
  102c32:	9325      	str	r3, [sp, #148]	; 0x94
  102c34:	2b07      	cmp	r3, #7
  102c36:	dc01      	bgt.n	102c3c <_svfprintf_r+0x8b0>
  102c38:	3408      	adds	r4, #8
  102c3a:	e008      	b.n	102c4e <_svfprintf_r+0x8c2>
  102c3c:	9809      	ldr	r0, [sp, #36]	; 0x24
  102c3e:	9908      	ldr	r1, [sp, #32]
  102c40:	aa24      	add	r2, sp, #144	; 0x90
  102c42:	f003 fd2b 	bl	10669c <__ssprint_r>
  102c46:	2800      	cmp	r0, #0
  102c48:	d000      	beq.n	102c4c <_svfprintf_r+0x8c0>
  102c4a:	e308      	b.n	10325e <_svfprintf_r+0xed2>
  102c4c:	ac31      	add	r4, sp, #196	; 0xc4
  102c4e:	3e10      	subs	r6, #16
  102c50:	2e10      	cmp	r6, #16
  102c52:	dce5      	bgt.n	102c20 <_svfprintf_r+0x894>
  102c54:	4b24      	ldr	r3, [pc, #144]	; (102ce8 <_svfprintf_r+0x95c>)
  102c56:	3310      	adds	r3, #16
  102c58:	6023      	str	r3, [r4, #0]
  102c5a:	9b26      	ldr	r3, [sp, #152]	; 0x98
  102c5c:	6066      	str	r6, [r4, #4]
  102c5e:	199e      	adds	r6, r3, r6
  102c60:	9b25      	ldr	r3, [sp, #148]	; 0x94
  102c62:	3301      	adds	r3, #1
  102c64:	9626      	str	r6, [sp, #152]	; 0x98
  102c66:	9325      	str	r3, [sp, #148]	; 0x94
  102c68:	2b07      	cmp	r3, #7
  102c6a:	dc01      	bgt.n	102c70 <_svfprintf_r+0x8e4>
  102c6c:	3408      	adds	r4, #8
  102c6e:	e008      	b.n	102c82 <_svfprintf_r+0x8f6>
  102c70:	9809      	ldr	r0, [sp, #36]	; 0x24
  102c72:	9908      	ldr	r1, [sp, #32]
  102c74:	aa24      	add	r2, sp, #144	; 0x90
  102c76:	f003 fd11 	bl	10669c <__ssprint_r>
  102c7a:	2800      	cmp	r0, #0
  102c7c:	d000      	beq.n	102c80 <_svfprintf_r+0x8f4>
  102c7e:	e2ee      	b.n	10325e <_svfprintf_r+0xed2>
  102c80:	ac31      	add	r4, sp, #196	; 0xc4
  102c82:	980a      	ldr	r0, [sp, #40]	; 0x28
  102c84:	1a2d      	subs	r5, r5, r0
  102c86:	2d00      	cmp	r5, #0
  102c88:	dc19      	bgt.n	102cbe <_svfprintf_r+0x932>
  102c8a:	e03a      	b.n	102d02 <_svfprintf_r+0x976>
  102c8c:	2310      	movs	r3, #16
  102c8e:	6063      	str	r3, [r4, #4]
  102c90:	9b26      	ldr	r3, [sp, #152]	; 0x98
  102c92:	4916      	ldr	r1, [pc, #88]	; (102cec <_svfprintf_r+0x960>)
  102c94:	3310      	adds	r3, #16
  102c96:	6021      	str	r1, [r4, #0]
  102c98:	9326      	str	r3, [sp, #152]	; 0x98
  102c9a:	9b25      	ldr	r3, [sp, #148]	; 0x94
  102c9c:	3301      	adds	r3, #1
  102c9e:	9325      	str	r3, [sp, #148]	; 0x94
  102ca0:	2b07      	cmp	r3, #7
  102ca2:	dc01      	bgt.n	102ca8 <_svfprintf_r+0x91c>
  102ca4:	3408      	adds	r4, #8
  102ca6:	e008      	b.n	102cba <_svfprintf_r+0x92e>
  102ca8:	9809      	ldr	r0, [sp, #36]	; 0x24
  102caa:	9908      	ldr	r1, [sp, #32]
  102cac:	aa24      	add	r2, sp, #144	; 0x90
  102cae:	f003 fcf5 	bl	10669c <__ssprint_r>
  102cb2:	2800      	cmp	r0, #0
  102cb4:	d000      	beq.n	102cb8 <_svfprintf_r+0x92c>
  102cb6:	e2d2      	b.n	10325e <_svfprintf_r+0xed2>
  102cb8:	ac31      	add	r4, sp, #196	; 0xc4
  102cba:	3d10      	subs	r5, #16
  102cbc:	e000      	b.n	102cc0 <_svfprintf_r+0x934>
  102cbe:	4e0a      	ldr	r6, [pc, #40]	; (102ce8 <_svfprintf_r+0x95c>)
  102cc0:	2d10      	cmp	r5, #16
  102cc2:	dce3      	bgt.n	102c8c <_svfprintf_r+0x900>
  102cc4:	9a26      	ldr	r2, [sp, #152]	; 0x98
  102cc6:	9b25      	ldr	r3, [sp, #148]	; 0x94
  102cc8:	6065      	str	r5, [r4, #4]
  102cca:	3610      	adds	r6, #16
  102ccc:	1955      	adds	r5, r2, r5
  102cce:	3301      	adds	r3, #1
  102cd0:	6026      	str	r6, [r4, #0]
  102cd2:	9526      	str	r5, [sp, #152]	; 0x98
  102cd4:	9325      	str	r3, [sp, #148]	; 0x94
  102cd6:	2b07      	cmp	r3, #7
  102cd8:	dc0a      	bgt.n	102cf0 <_svfprintf_r+0x964>
  102cda:	3408      	adds	r4, #8
  102cdc:	e011      	b.n	102d02 <_svfprintf_r+0x976>
  102cde:	46c0      	nop			; (mov r8, r8)
  102ce0:	001091fb 			; <UNDEFINED> instruction: 0x001091fb
  102ce4:	001091ea 	andseq	r9, r0, sl, ror #3
  102ce8:	001091ba 			; <UNDEFINED> instruction: 0x001091ba
  102cec:	001091ca 	andseq	r9, r0, sl, asr #3
  102cf0:	9809      	ldr	r0, [sp, #36]	; 0x24
  102cf2:	9908      	ldr	r1, [sp, #32]
  102cf4:	aa24      	add	r2, sp, #144	; 0x90
  102cf6:	f003 fcd1 	bl	10669c <__ssprint_r>
  102cfa:	2800      	cmp	r0, #0
  102cfc:	d000      	beq.n	102d00 <_svfprintf_r+0x974>
  102cfe:	e2ae      	b.n	10325e <_svfprintf_r+0xed2>
  102d00:	ac31      	add	r4, sp, #196	; 0xc4
  102d02:	9b06      	ldr	r3, [sp, #24]
  102d04:	05db      	lsls	r3, r3, #23
  102d06:	d410      	bmi.n	102d2a <_svfprintf_r+0x99e>
  102d08:	990a      	ldr	r1, [sp, #40]	; 0x28
  102d0a:	9805      	ldr	r0, [sp, #20]
  102d0c:	9a26      	ldr	r2, [sp, #152]	; 0x98
  102d0e:	6020      	str	r0, [r4, #0]
  102d10:	6061      	str	r1, [r4, #4]
  102d12:	1855      	adds	r5, r2, r1
  102d14:	e1bd      	b.n	103092 <_svfprintf_r+0xd06>
  102d16:	9809      	ldr	r0, [sp, #36]	; 0x24
  102d18:	9908      	ldr	r1, [sp, #32]
  102d1a:	aa24      	add	r2, sp, #144	; 0x90
  102d1c:	f003 fcbe 	bl	10669c <__ssprint_r>
  102d20:	2800      	cmp	r0, #0
  102d22:	d000      	beq.n	102d26 <_svfprintf_r+0x99a>
  102d24:	e29b      	b.n	10325e <_svfprintf_r+0xed2>
  102d26:	ac31      	add	r4, sp, #196	; 0xc4
  102d28:	e245      	b.n	1031b6 <_svfprintf_r+0xe2a>
  102d2a:	9b0b      	ldr	r3, [sp, #44]	; 0x2c
  102d2c:	2b65      	cmp	r3, #101	; 0x65
  102d2e:	dc00      	bgt.n	102d32 <_svfprintf_r+0x9a6>
  102d30:	e1b7      	b.n	1030a2 <_svfprintf_r+0xd16>
  102d32:	9811      	ldr	r0, [sp, #68]	; 0x44
  102d34:	9912      	ldr	r1, [sp, #72]	; 0x48
  102d36:	4bc9      	ldr	r3, [pc, #804]	; (10305c <_svfprintf_r+0xcd0>)
  102d38:	4ac7      	ldr	r2, [pc, #796]	; (103058 <_svfprintf_r+0xccc>)
  102d3a:	f005 ff45 	bl	108bc8 <__cmpdf2>
  102d3e:	2800      	cmp	r0, #0
  102d40:	d15c      	bne.n	102dfc <_svfprintf_r+0xa70>
  102d42:	4bc7      	ldr	r3, [pc, #796]	; (103060 <_svfprintf_r+0xcd4>)
  102d44:	6023      	str	r3, [r4, #0]
  102d46:	2301      	movs	r3, #1
  102d48:	6063      	str	r3, [r4, #4]
  102d4a:	9b26      	ldr	r3, [sp, #152]	; 0x98
  102d4c:	3301      	adds	r3, #1
  102d4e:	9326      	str	r3, [sp, #152]	; 0x98
  102d50:	9b25      	ldr	r3, [sp, #148]	; 0x94
  102d52:	3301      	adds	r3, #1
  102d54:	9325      	str	r3, [sp, #148]	; 0x94
  102d56:	2b07      	cmp	r3, #7
  102d58:	dc01      	bgt.n	102d5e <_svfprintf_r+0x9d2>
  102d5a:	3408      	adds	r4, #8
  102d5c:	e008      	b.n	102d70 <_svfprintf_r+0x9e4>
  102d5e:	9809      	ldr	r0, [sp, #36]	; 0x24
  102d60:	9908      	ldr	r1, [sp, #32]
  102d62:	aa24      	add	r2, sp, #144	; 0x90
  102d64:	f003 fc9a 	bl	10669c <__ssprint_r>
  102d68:	2800      	cmp	r0, #0
  102d6a:	d000      	beq.n	102d6e <_svfprintf_r+0x9e2>
  102d6c:	e277      	b.n	10325e <_svfprintf_r+0xed2>
  102d6e:	ac31      	add	r4, sp, #196	; 0xc4
  102d70:	981d      	ldr	r0, [sp, #116]	; 0x74
  102d72:	990d      	ldr	r1, [sp, #52]	; 0x34
  102d74:	4288      	cmp	r0, r1
  102d76:	db03      	blt.n	102d80 <_svfprintf_r+0x9f4>
  102d78:	9a06      	ldr	r2, [sp, #24]
  102d7a:	07d2      	lsls	r2, r2, #31
  102d7c:	d400      	bmi.n	102d80 <_svfprintf_r+0x9f4>
  102d7e:	e21a      	b.n	1031b6 <_svfprintf_r+0xe2a>
  102d80:	9b17      	ldr	r3, [sp, #92]	; 0x5c
  102d82:	9815      	ldr	r0, [sp, #84]	; 0x54
  102d84:	9926      	ldr	r1, [sp, #152]	; 0x98
  102d86:	6023      	str	r3, [r4, #0]
  102d88:	1843      	adds	r3, r0, r1
  102d8a:	6060      	str	r0, [r4, #4]
  102d8c:	9326      	str	r3, [sp, #152]	; 0x98
  102d8e:	9b25      	ldr	r3, [sp, #148]	; 0x94
  102d90:	3301      	adds	r3, #1
  102d92:	9325      	str	r3, [sp, #148]	; 0x94
  102d94:	2b07      	cmp	r3, #7
  102d96:	dc01      	bgt.n	102d9c <_svfprintf_r+0xa10>
  102d98:	3408      	adds	r4, #8
  102d9a:	e008      	b.n	102dae <_svfprintf_r+0xa22>
  102d9c:	9809      	ldr	r0, [sp, #36]	; 0x24
  102d9e:	9908      	ldr	r1, [sp, #32]
  102da0:	aa24      	add	r2, sp, #144	; 0x90
  102da2:	f003 fc7b 	bl	10669c <__ssprint_r>
  102da6:	2800      	cmp	r0, #0
  102da8:	d000      	beq.n	102dac <_svfprintf_r+0xa20>
  102daa:	e258      	b.n	10325e <_svfprintf_r+0xed2>
  102dac:	ac31      	add	r4, sp, #196	; 0xc4
  102dae:	9d0d      	ldr	r5, [sp, #52]	; 0x34
  102db0:	3d01      	subs	r5, #1
  102db2:	2d00      	cmp	r5, #0
  102db4:	dc19      	bgt.n	102dea <_svfprintf_r+0xa5e>
  102db6:	e1fe      	b.n	1031b6 <_svfprintf_r+0xe2a>
  102db8:	2310      	movs	r3, #16
  102dba:	6063      	str	r3, [r4, #4]
  102dbc:	9b26      	ldr	r3, [sp, #152]	; 0x98
  102dbe:	4aa9      	ldr	r2, [pc, #676]	; (103064 <_svfprintf_r+0xcd8>)
  102dc0:	3310      	adds	r3, #16
  102dc2:	6022      	str	r2, [r4, #0]
  102dc4:	9326      	str	r3, [sp, #152]	; 0x98
  102dc6:	9b25      	ldr	r3, [sp, #148]	; 0x94
  102dc8:	3301      	adds	r3, #1
  102dca:	9325      	str	r3, [sp, #148]	; 0x94
  102dcc:	2b07      	cmp	r3, #7
  102dce:	dc01      	bgt.n	102dd4 <_svfprintf_r+0xa48>
  102dd0:	3408      	adds	r4, #8
  102dd2:	e008      	b.n	102de6 <_svfprintf_r+0xa5a>
  102dd4:	9809      	ldr	r0, [sp, #36]	; 0x24
  102dd6:	9908      	ldr	r1, [sp, #32]
  102dd8:	aa24      	add	r2, sp, #144	; 0x90
  102dda:	f003 fc5f 	bl	10669c <__ssprint_r>
  102dde:	2800      	cmp	r0, #0
  102de0:	d000      	beq.n	102de4 <_svfprintf_r+0xa58>
  102de2:	e23c      	b.n	10325e <_svfprintf_r+0xed2>
  102de4:	ac31      	add	r4, sp, #196	; 0xc4
  102de6:	3d10      	subs	r5, #16
  102de8:	e000      	b.n	102dec <_svfprintf_r+0xa60>
  102dea:	4e9f      	ldr	r6, [pc, #636]	; (103068 <_svfprintf_r+0xcdc>)
  102dec:	2d10      	cmp	r5, #16
  102dee:	dce3      	bgt.n	102db8 <_svfprintf_r+0xa2c>
  102df0:	9b26      	ldr	r3, [sp, #152]	; 0x98
  102df2:	3610      	adds	r6, #16
  102df4:	6065      	str	r5, [r4, #4]
  102df6:	6026      	str	r6, [r4, #0]
  102df8:	195d      	adds	r5, r3, r5
  102dfa:	e14a      	b.n	103092 <_svfprintf_r+0xd06>
  102dfc:	981d      	ldr	r0, [sp, #116]	; 0x74
  102dfe:	2800      	cmp	r0, #0
  102e00:	dc75      	bgt.n	102eee <_svfprintf_r+0xb62>
  102e02:	4b97      	ldr	r3, [pc, #604]	; (103060 <_svfprintf_r+0xcd4>)
  102e04:	6023      	str	r3, [r4, #0]
  102e06:	2301      	movs	r3, #1
  102e08:	6063      	str	r3, [r4, #4]
  102e0a:	9b26      	ldr	r3, [sp, #152]	; 0x98
  102e0c:	3301      	adds	r3, #1
  102e0e:	9326      	str	r3, [sp, #152]	; 0x98
  102e10:	9b25      	ldr	r3, [sp, #148]	; 0x94
  102e12:	3301      	adds	r3, #1
  102e14:	9325      	str	r3, [sp, #148]	; 0x94
  102e16:	2b07      	cmp	r3, #7
  102e18:	dc01      	bgt.n	102e1e <_svfprintf_r+0xa92>
  102e1a:	3408      	adds	r4, #8
  102e1c:	e008      	b.n	102e30 <_svfprintf_r+0xaa4>
  102e1e:	9809      	ldr	r0, [sp, #36]	; 0x24
  102e20:	9908      	ldr	r1, [sp, #32]
  102e22:	aa24      	add	r2, sp, #144	; 0x90
  102e24:	f003 fc3a 	bl	10669c <__ssprint_r>
  102e28:	2800      	cmp	r0, #0
  102e2a:	d000      	beq.n	102e2e <_svfprintf_r+0xaa2>
  102e2c:	e217      	b.n	10325e <_svfprintf_r+0xed2>
  102e2e:	ac31      	add	r4, sp, #196	; 0xc4
  102e30:	991d      	ldr	r1, [sp, #116]	; 0x74
  102e32:	2900      	cmp	r1, #0
  102e34:	d106      	bne.n	102e44 <_svfprintf_r+0xab8>
  102e36:	9a0d      	ldr	r2, [sp, #52]	; 0x34
  102e38:	2a00      	cmp	r2, #0
  102e3a:	d103      	bne.n	102e44 <_svfprintf_r+0xab8>
  102e3c:	9b06      	ldr	r3, [sp, #24]
  102e3e:	07db      	lsls	r3, r3, #31
  102e40:	d400      	bmi.n	102e44 <_svfprintf_r+0xab8>
  102e42:	e1b8      	b.n	1031b6 <_svfprintf_r+0xe2a>
  102e44:	9915      	ldr	r1, [sp, #84]	; 0x54
  102e46:	9a26      	ldr	r2, [sp, #152]	; 0x98
  102e48:	9817      	ldr	r0, [sp, #92]	; 0x5c
  102e4a:	188b      	adds	r3, r1, r2
  102e4c:	6020      	str	r0, [r4, #0]
  102e4e:	6061      	str	r1, [r4, #4]
  102e50:	9326      	str	r3, [sp, #152]	; 0x98
  102e52:	9b25      	ldr	r3, [sp, #148]	; 0x94
  102e54:	3301      	adds	r3, #1
  102e56:	9325      	str	r3, [sp, #148]	; 0x94
  102e58:	2b07      	cmp	r3, #7
  102e5a:	dc01      	bgt.n	102e60 <_svfprintf_r+0xad4>
  102e5c:	3408      	adds	r4, #8
  102e5e:	e008      	b.n	102e72 <_svfprintf_r+0xae6>
  102e60:	9809      	ldr	r0, [sp, #36]	; 0x24
  102e62:	9908      	ldr	r1, [sp, #32]
  102e64:	aa24      	add	r2, sp, #144	; 0x90
  102e66:	f003 fc19 	bl	10669c <__ssprint_r>
  102e6a:	2800      	cmp	r0, #0
  102e6c:	d000      	beq.n	102e70 <_svfprintf_r+0xae4>
  102e6e:	e1f6      	b.n	10325e <_svfprintf_r+0xed2>
  102e70:	ac31      	add	r4, sp, #196	; 0xc4
  102e72:	9b1d      	ldr	r3, [sp, #116]	; 0x74
  102e74:	425d      	negs	r5, r3
  102e76:	2d00      	cmp	r5, #0
  102e78:	dc19      	bgt.n	102eae <_svfprintf_r+0xb22>
  102e7a:	e031      	b.n	102ee0 <_svfprintf_r+0xb54>
  102e7c:	2310      	movs	r3, #16
  102e7e:	6063      	str	r3, [r4, #4]
  102e80:	9b26      	ldr	r3, [sp, #152]	; 0x98
  102e82:	4878      	ldr	r0, [pc, #480]	; (103064 <_svfprintf_r+0xcd8>)
  102e84:	3310      	adds	r3, #16
  102e86:	6020      	str	r0, [r4, #0]
  102e88:	9326      	str	r3, [sp, #152]	; 0x98
  102e8a:	9b25      	ldr	r3, [sp, #148]	; 0x94
  102e8c:	3301      	adds	r3, #1
  102e8e:	9325      	str	r3, [sp, #148]	; 0x94
  102e90:	2b07      	cmp	r3, #7
  102e92:	dc01      	bgt.n	102e98 <_svfprintf_r+0xb0c>
  102e94:	3408      	adds	r4, #8
  102e96:	e008      	b.n	102eaa <_svfprintf_r+0xb1e>
  102e98:	9809      	ldr	r0, [sp, #36]	; 0x24
  102e9a:	9908      	ldr	r1, [sp, #32]
  102e9c:	aa24      	add	r2, sp, #144	; 0x90
  102e9e:	f003 fbfd 	bl	10669c <__ssprint_r>
  102ea2:	2800      	cmp	r0, #0
  102ea4:	d000      	beq.n	102ea8 <_svfprintf_r+0xb1c>
  102ea6:	e1da      	b.n	10325e <_svfprintf_r+0xed2>
  102ea8:	ac31      	add	r4, sp, #196	; 0xc4
  102eaa:	3d10      	subs	r5, #16
  102eac:	e000      	b.n	102eb0 <_svfprintf_r+0xb24>
  102eae:	4e6e      	ldr	r6, [pc, #440]	; (103068 <_svfprintf_r+0xcdc>)
  102eb0:	2d10      	cmp	r5, #16
  102eb2:	dce3      	bgt.n	102e7c <_svfprintf_r+0xaf0>
  102eb4:	9926      	ldr	r1, [sp, #152]	; 0x98
  102eb6:	9b25      	ldr	r3, [sp, #148]	; 0x94
  102eb8:	6065      	str	r5, [r4, #4]
  102eba:	3610      	adds	r6, #16
  102ebc:	194d      	adds	r5, r1, r5
  102ebe:	3301      	adds	r3, #1
  102ec0:	6026      	str	r6, [r4, #0]
  102ec2:	9526      	str	r5, [sp, #152]	; 0x98
  102ec4:	9325      	str	r3, [sp, #148]	; 0x94
  102ec6:	2b07      	cmp	r3, #7
  102ec8:	dc01      	bgt.n	102ece <_svfprintf_r+0xb42>
  102eca:	3408      	adds	r4, #8
  102ecc:	e008      	b.n	102ee0 <_svfprintf_r+0xb54>
  102ece:	9809      	ldr	r0, [sp, #36]	; 0x24
  102ed0:	9908      	ldr	r1, [sp, #32]
  102ed2:	aa24      	add	r2, sp, #144	; 0x90
  102ed4:	f003 fbe2 	bl	10669c <__ssprint_r>
  102ed8:	2800      	cmp	r0, #0
  102eda:	d000      	beq.n	102ede <_svfprintf_r+0xb52>
  102edc:	e1bf      	b.n	10325e <_svfprintf_r+0xed2>
  102ede:	ac31      	add	r4, sp, #196	; 0xc4
  102ee0:	9b0d      	ldr	r3, [sp, #52]	; 0x34
  102ee2:	9a05      	ldr	r2, [sp, #20]
  102ee4:	9826      	ldr	r0, [sp, #152]	; 0x98
  102ee6:	6063      	str	r3, [r4, #4]
  102ee8:	6022      	str	r2, [r4, #0]
  102eea:	18c3      	adds	r3, r0, r3
  102eec:	e160      	b.n	1031b0 <_svfprintf_r+0xe24>
  102eee:	9a05      	ldr	r2, [sp, #20]
  102ef0:	9b0d      	ldr	r3, [sp, #52]	; 0x34
  102ef2:	9805      	ldr	r0, [sp, #20]
  102ef4:	9907      	ldr	r1, [sp, #28]
  102ef6:	18d2      	adds	r2, r2, r3
  102ef8:	920a      	str	r2, [sp, #40]	; 0x28
  102efa:	1a16      	subs	r6, r2, r0
  102efc:	428e      	cmp	r6, r1
  102efe:	dd00      	ble.n	102f02 <_svfprintf_r+0xb76>
  102f00:	1c0e      	adds	r6, r1, #0
  102f02:	2e00      	cmp	r6, #0
  102f04:	dd15      	ble.n	102f32 <_svfprintf_r+0xba6>
  102f06:	9826      	ldr	r0, [sp, #152]	; 0x98
  102f08:	9a05      	ldr	r2, [sp, #20]
  102f0a:	1983      	adds	r3, r0, r6
  102f0c:	6022      	str	r2, [r4, #0]
  102f0e:	6066      	str	r6, [r4, #4]
  102f10:	9326      	str	r3, [sp, #152]	; 0x98
  102f12:	9b25      	ldr	r3, [sp, #148]	; 0x94
  102f14:	3301      	adds	r3, #1
  102f16:	9325      	str	r3, [sp, #148]	; 0x94
  102f18:	2b07      	cmp	r3, #7
  102f1a:	dc01      	bgt.n	102f20 <_svfprintf_r+0xb94>
  102f1c:	3408      	adds	r4, #8
  102f1e:	e008      	b.n	102f32 <_svfprintf_r+0xba6>
  102f20:	9809      	ldr	r0, [sp, #36]	; 0x24
  102f22:	9908      	ldr	r1, [sp, #32]
  102f24:	aa24      	add	r2, sp, #144	; 0x90
  102f26:	f003 fbb9 	bl	10669c <__ssprint_r>
  102f2a:	2800      	cmp	r0, #0
  102f2c:	d000      	beq.n	102f30 <_svfprintf_r+0xba4>
  102f2e:	e196      	b.n	10325e <_svfprintf_r+0xed2>
  102f30:	ac31      	add	r4, sp, #196	; 0xc4
  102f32:	43f5      	mvns	r5, r6
  102f34:	17ed      	asrs	r5, r5, #31
  102f36:	9907      	ldr	r1, [sp, #28]
  102f38:	402e      	ands	r6, r5
  102f3a:	1b8d      	subs	r5, r1, r6
  102f3c:	2d00      	cmp	r5, #0
  102f3e:	dc19      	bgt.n	102f74 <_svfprintf_r+0xbe8>
  102f40:	e031      	b.n	102fa6 <_svfprintf_r+0xc1a>
  102f42:	2310      	movs	r3, #16
  102f44:	6063      	str	r3, [r4, #4]
  102f46:	9b26      	ldr	r3, [sp, #152]	; 0x98
  102f48:	4a46      	ldr	r2, [pc, #280]	; (103064 <_svfprintf_r+0xcd8>)
  102f4a:	3310      	adds	r3, #16
  102f4c:	6022      	str	r2, [r4, #0]
  102f4e:	9326      	str	r3, [sp, #152]	; 0x98
  102f50:	9b25      	ldr	r3, [sp, #148]	; 0x94
  102f52:	3301      	adds	r3, #1
  102f54:	9325      	str	r3, [sp, #148]	; 0x94
  102f56:	2b07      	cmp	r3, #7
  102f58:	dc01      	bgt.n	102f5e <_svfprintf_r+0xbd2>
  102f5a:	3408      	adds	r4, #8
  102f5c:	e008      	b.n	102f70 <_svfprintf_r+0xbe4>
  102f5e:	9809      	ldr	r0, [sp, #36]	; 0x24
  102f60:	9908      	ldr	r1, [sp, #32]
  102f62:	aa24      	add	r2, sp, #144	; 0x90
  102f64:	f003 fb9a 	bl	10669c <__ssprint_r>
  102f68:	2800      	cmp	r0, #0
  102f6a:	d000      	beq.n	102f6e <_svfprintf_r+0xbe2>
  102f6c:	e177      	b.n	10325e <_svfprintf_r+0xed2>
  102f6e:	ac31      	add	r4, sp, #196	; 0xc4
  102f70:	3d10      	subs	r5, #16
  102f72:	e000      	b.n	102f76 <_svfprintf_r+0xbea>
  102f74:	4e3c      	ldr	r6, [pc, #240]	; (103068 <_svfprintf_r+0xcdc>)
  102f76:	2d10      	cmp	r5, #16
  102f78:	dce3      	bgt.n	102f42 <_svfprintf_r+0xbb6>
  102f7a:	9b26      	ldr	r3, [sp, #152]	; 0x98
  102f7c:	6065      	str	r5, [r4, #4]
  102f7e:	195d      	adds	r5, r3, r5
  102f80:	9b25      	ldr	r3, [sp, #148]	; 0x94
  102f82:	3610      	adds	r6, #16
  102f84:	3301      	adds	r3, #1
  102f86:	6026      	str	r6, [r4, #0]
  102f88:	9526      	str	r5, [sp, #152]	; 0x98
  102f8a:	9325      	str	r3, [sp, #148]	; 0x94
  102f8c:	2b07      	cmp	r3, #7
  102f8e:	dc01      	bgt.n	102f94 <_svfprintf_r+0xc08>
  102f90:	3408      	adds	r4, #8
  102f92:	e008      	b.n	102fa6 <_svfprintf_r+0xc1a>
  102f94:	9809      	ldr	r0, [sp, #36]	; 0x24
  102f96:	9908      	ldr	r1, [sp, #32]
  102f98:	aa24      	add	r2, sp, #144	; 0x90
  102f9a:	f003 fb7f 	bl	10669c <__ssprint_r>
  102f9e:	2800      	cmp	r0, #0
  102fa0:	d000      	beq.n	102fa4 <_svfprintf_r+0xc18>
  102fa2:	e15c      	b.n	10325e <_svfprintf_r+0xed2>
  102fa4:	ac31      	add	r4, sp, #196	; 0xc4
  102fa6:	9805      	ldr	r0, [sp, #20]
  102fa8:	9907      	ldr	r1, [sp, #28]
  102faa:	9a1d      	ldr	r2, [sp, #116]	; 0x74
  102fac:	9b0d      	ldr	r3, [sp, #52]	; 0x34
  102fae:	1845      	adds	r5, r0, r1
  102fb0:	429a      	cmp	r2, r3
  102fb2:	db02      	blt.n	102fba <_svfprintf_r+0xc2e>
  102fb4:	9806      	ldr	r0, [sp, #24]
  102fb6:	07c0      	lsls	r0, r0, #31
  102fb8:	d516      	bpl.n	102fe8 <_svfprintf_r+0xc5c>
  102fba:	9a15      	ldr	r2, [sp, #84]	; 0x54
  102fbc:	9826      	ldr	r0, [sp, #152]	; 0x98
  102fbe:	9917      	ldr	r1, [sp, #92]	; 0x5c
  102fc0:	1813      	adds	r3, r2, r0
  102fc2:	6021      	str	r1, [r4, #0]
  102fc4:	6062      	str	r2, [r4, #4]
  102fc6:	9326      	str	r3, [sp, #152]	; 0x98
  102fc8:	9b25      	ldr	r3, [sp, #148]	; 0x94
  102fca:	3301      	adds	r3, #1
  102fcc:	9325      	str	r3, [sp, #148]	; 0x94
  102fce:	2b07      	cmp	r3, #7
  102fd0:	dc01      	bgt.n	102fd6 <_svfprintf_r+0xc4a>
  102fd2:	3408      	adds	r4, #8
  102fd4:	e008      	b.n	102fe8 <_svfprintf_r+0xc5c>
  102fd6:	9809      	ldr	r0, [sp, #36]	; 0x24
  102fd8:	9908      	ldr	r1, [sp, #32]
  102fda:	aa24      	add	r2, sp, #144	; 0x90
  102fdc:	f003 fb5e 	bl	10669c <__ssprint_r>
  102fe0:	2800      	cmp	r0, #0
  102fe2:	d000      	beq.n	102fe6 <_svfprintf_r+0xc5a>
  102fe4:	e13b      	b.n	10325e <_svfprintf_r+0xed2>
  102fe6:	ac31      	add	r4, sp, #196	; 0xc4
  102fe8:	990d      	ldr	r1, [sp, #52]	; 0x34
  102fea:	9a1d      	ldr	r2, [sp, #116]	; 0x74
  102fec:	980a      	ldr	r0, [sp, #40]	; 0x28
  102fee:	1a8b      	subs	r3, r1, r2
  102ff0:	1b46      	subs	r6, r0, r5
  102ff2:	429e      	cmp	r6, r3
  102ff4:	dd00      	ble.n	102ff8 <_svfprintf_r+0xc6c>
  102ff6:	1c1e      	adds	r6, r3, #0
  102ff8:	2e00      	cmp	r6, #0
  102ffa:	dd14      	ble.n	103026 <_svfprintf_r+0xc9a>
  102ffc:	9926      	ldr	r1, [sp, #152]	; 0x98
  102ffe:	198b      	adds	r3, r1, r6
  103000:	6025      	str	r5, [r4, #0]
  103002:	6066      	str	r6, [r4, #4]
  103004:	9326      	str	r3, [sp, #152]	; 0x98
  103006:	9b25      	ldr	r3, [sp, #148]	; 0x94
  103008:	3301      	adds	r3, #1
  10300a:	9325      	str	r3, [sp, #148]	; 0x94
  10300c:	2b07      	cmp	r3, #7
  10300e:	dc01      	bgt.n	103014 <_svfprintf_r+0xc88>
  103010:	3408      	adds	r4, #8
  103012:	e008      	b.n	103026 <_svfprintf_r+0xc9a>
  103014:	9809      	ldr	r0, [sp, #36]	; 0x24
  103016:	9908      	ldr	r1, [sp, #32]
  103018:	aa24      	add	r2, sp, #144	; 0x90
  10301a:	f003 fb3f 	bl	10669c <__ssprint_r>
  10301e:	2800      	cmp	r0, #0
  103020:	d000      	beq.n	103024 <_svfprintf_r+0xc98>
  103022:	e11c      	b.n	10325e <_svfprintf_r+0xed2>
  103024:	ac31      	add	r4, sp, #196	; 0xc4
  103026:	43f5      	mvns	r5, r6
  103028:	9a0d      	ldr	r2, [sp, #52]	; 0x34
  10302a:	981d      	ldr	r0, [sp, #116]	; 0x74
  10302c:	17ed      	asrs	r5, r5, #31
  10302e:	1c33      	adds	r3, r6, #0
  103030:	402b      	ands	r3, r5
  103032:	1a15      	subs	r5, r2, r0
  103034:	1aed      	subs	r5, r5, r3
  103036:	2d00      	cmp	r5, #0
  103038:	dc23      	bgt.n	103082 <_svfprintf_r+0xcf6>
  10303a:	e0bc      	b.n	1031b6 <_svfprintf_r+0xe2a>
  10303c:	2310      	movs	r3, #16
  10303e:	6063      	str	r3, [r4, #4]
  103040:	9b26      	ldr	r3, [sp, #152]	; 0x98
  103042:	4908      	ldr	r1, [pc, #32]	; (103064 <_svfprintf_r+0xcd8>)
  103044:	3310      	adds	r3, #16
  103046:	6021      	str	r1, [r4, #0]
  103048:	9326      	str	r3, [sp, #152]	; 0x98
  10304a:	9b25      	ldr	r3, [sp, #148]	; 0x94
  10304c:	3301      	adds	r3, #1
  10304e:	9325      	str	r3, [sp, #148]	; 0x94
  103050:	2b07      	cmp	r3, #7
  103052:	dc0b      	bgt.n	10306c <_svfprintf_r+0xce0>
  103054:	3408      	adds	r4, #8
  103056:	e012      	b.n	10307e <_svfprintf_r+0xcf2>
	...
  103060:	0010920c 	andseq	r9, r0, ip, lsl #4
  103064:	001091ca 	andseq	r9, r0, sl, asr #3
  103068:	001091ba 			; <UNDEFINED> instruction: 0x001091ba
  10306c:	9809      	ldr	r0, [sp, #36]	; 0x24
  10306e:	9908      	ldr	r1, [sp, #32]
  103070:	aa24      	add	r2, sp, #144	; 0x90
  103072:	f003 fb13 	bl	10669c <__ssprint_r>
  103076:	2800      	cmp	r0, #0
  103078:	d000      	beq.n	10307c <_svfprintf_r+0xcf0>
  10307a:	e0f0      	b.n	10325e <_svfprintf_r+0xed2>
  10307c:	ac31      	add	r4, sp, #196	; 0xc4
  10307e:	3d10      	subs	r5, #16
  103080:	e000      	b.n	103084 <_svfprintf_r+0xcf8>
  103082:	4e7c      	ldr	r6, [pc, #496]	; (103274 <_svfprintf_r+0xee8>)
  103084:	2d10      	cmp	r5, #16
  103086:	dcd9      	bgt.n	10303c <_svfprintf_r+0xcb0>
  103088:	3610      	adds	r6, #16
  10308a:	9a26      	ldr	r2, [sp, #152]	; 0x98
  10308c:	6026      	str	r6, [r4, #0]
  10308e:	6065      	str	r5, [r4, #4]
  103090:	1955      	adds	r5, r2, r5
  103092:	9526      	str	r5, [sp, #152]	; 0x98
  103094:	9b25      	ldr	r3, [sp, #148]	; 0x94
  103096:	3301      	adds	r3, #1
  103098:	9325      	str	r3, [sp, #148]	; 0x94
  10309a:	2b07      	cmp	r3, #7
  10309c:	dd00      	ble.n	1030a0 <_svfprintf_r+0xd14>
  10309e:	e63a      	b.n	102d16 <_svfprintf_r+0x98a>
  1030a0:	e088      	b.n	1031b4 <_svfprintf_r+0xe28>
  1030a2:	9b0d      	ldr	r3, [sp, #52]	; 0x34
  1030a4:	9905      	ldr	r1, [sp, #20]
  1030a6:	2b01      	cmp	r3, #1
  1030a8:	dc03      	bgt.n	1030b2 <_svfprintf_r+0xd26>
  1030aa:	9806      	ldr	r0, [sp, #24]
  1030ac:	2301      	movs	r3, #1
  1030ae:	4218      	tst	r0, r3
  1030b0:	d071      	beq.n	103196 <_svfprintf_r+0xe0a>
  1030b2:	2301      	movs	r3, #1
  1030b4:	6063      	str	r3, [r4, #4]
  1030b6:	9b26      	ldr	r3, [sp, #152]	; 0x98
  1030b8:	3301      	adds	r3, #1
  1030ba:	6021      	str	r1, [r4, #0]
  1030bc:	9326      	str	r3, [sp, #152]	; 0x98
  1030be:	9b25      	ldr	r3, [sp, #148]	; 0x94
  1030c0:	3301      	adds	r3, #1
  1030c2:	9325      	str	r3, [sp, #148]	; 0x94
  1030c4:	2b07      	cmp	r3, #7
  1030c6:	dc01      	bgt.n	1030cc <_svfprintf_r+0xd40>
  1030c8:	3408      	adds	r4, #8
  1030ca:	e008      	b.n	1030de <_svfprintf_r+0xd52>
  1030cc:	9809      	ldr	r0, [sp, #36]	; 0x24
  1030ce:	9908      	ldr	r1, [sp, #32]
  1030d0:	aa24      	add	r2, sp, #144	; 0x90
  1030d2:	f003 fae3 	bl	10669c <__ssprint_r>
  1030d6:	2800      	cmp	r0, #0
  1030d8:	d000      	beq.n	1030dc <_svfprintf_r+0xd50>
  1030da:	e0c0      	b.n	10325e <_svfprintf_r+0xed2>
  1030dc:	ac31      	add	r4, sp, #196	; 0xc4
  1030de:	9b15      	ldr	r3, [sp, #84]	; 0x54
  1030e0:	9926      	ldr	r1, [sp, #152]	; 0x98
  1030e2:	9a17      	ldr	r2, [sp, #92]	; 0x5c
  1030e4:	6063      	str	r3, [r4, #4]
  1030e6:	185b      	adds	r3, r3, r1
  1030e8:	6022      	str	r2, [r4, #0]
  1030ea:	9326      	str	r3, [sp, #152]	; 0x98
  1030ec:	9b25      	ldr	r3, [sp, #148]	; 0x94
  1030ee:	3301      	adds	r3, #1
  1030f0:	9325      	str	r3, [sp, #148]	; 0x94
  1030f2:	2b07      	cmp	r3, #7
  1030f4:	dc01      	bgt.n	1030fa <_svfprintf_r+0xd6e>
  1030f6:	3408      	adds	r4, #8
  1030f8:	e008      	b.n	10310c <_svfprintf_r+0xd80>
  1030fa:	9809      	ldr	r0, [sp, #36]	; 0x24
  1030fc:	9908      	ldr	r1, [sp, #32]
  1030fe:	aa24      	add	r2, sp, #144	; 0x90
  103100:	f003 facc 	bl	10669c <__ssprint_r>
  103104:	2800      	cmp	r0, #0
  103106:	d000      	beq.n	10310a <_svfprintf_r+0xd7e>
  103108:	e0a9      	b.n	10325e <_svfprintf_r+0xed2>
  10310a:	ac31      	add	r4, sp, #196	; 0xc4
  10310c:	9811      	ldr	r0, [sp, #68]	; 0x44
  10310e:	9912      	ldr	r1, [sp, #72]	; 0x48
  103110:	4a59      	ldr	r2, [pc, #356]	; (103278 <_svfprintf_r+0xeec>)
  103112:	4b5a      	ldr	r3, [pc, #360]	; (10327c <_svfprintf_r+0xef0>)
  103114:	f005 fd58 	bl	108bc8 <__cmpdf2>
  103118:	9d0d      	ldr	r5, [sp, #52]	; 0x34
  10311a:	3d01      	subs	r5, #1
  10311c:	2800      	cmp	r0, #0
  10311e:	d010      	beq.n	103142 <_svfprintf_r+0xdb6>
  103120:	9e05      	ldr	r6, [sp, #20]
  103122:	9a26      	ldr	r2, [sp, #152]	; 0x98
  103124:	3601      	adds	r6, #1
  103126:	6065      	str	r5, [r4, #4]
  103128:	6026      	str	r6, [r4, #0]
  10312a:	1955      	adds	r5, r2, r5
  10312c:	e02c      	b.n	103188 <_svfprintf_r+0xdfc>
  10312e:	9809      	ldr	r0, [sp, #36]	; 0x24
  103130:	9908      	ldr	r1, [sp, #32]
  103132:	aa24      	add	r2, sp, #144	; 0x90
  103134:	f003 fab2 	bl	10669c <__ssprint_r>
  103138:	2800      	cmp	r0, #0
  10313a:	d000      	beq.n	10313e <_svfprintf_r+0xdb2>
  10313c:	e08f      	b.n	10325e <_svfprintf_r+0xed2>
  10313e:	ac31      	add	r4, sp, #196	; 0xc4
  103140:	e030      	b.n	1031a4 <_svfprintf_r+0xe18>
  103142:	2d00      	cmp	r5, #0
  103144:	dc18      	bgt.n	103178 <_svfprintf_r+0xdec>
  103146:	e02d      	b.n	1031a4 <_svfprintf_r+0xe18>
  103148:	4b4d      	ldr	r3, [pc, #308]	; (103280 <_svfprintf_r+0xef4>)
  10314a:	6023      	str	r3, [r4, #0]
  10314c:	2310      	movs	r3, #16
  10314e:	6063      	str	r3, [r4, #4]
  103150:	9b26      	ldr	r3, [sp, #152]	; 0x98
  103152:	3310      	adds	r3, #16
  103154:	9326      	str	r3, [sp, #152]	; 0x98
  103156:	9b25      	ldr	r3, [sp, #148]	; 0x94
  103158:	3301      	adds	r3, #1
  10315a:	9325      	str	r3, [sp, #148]	; 0x94
  10315c:	2b07      	cmp	r3, #7
  10315e:	dc01      	bgt.n	103164 <_svfprintf_r+0xdd8>
  103160:	3408      	adds	r4, #8
  103162:	e007      	b.n	103174 <_svfprintf_r+0xde8>
  103164:	9809      	ldr	r0, [sp, #36]	; 0x24
  103166:	9908      	ldr	r1, [sp, #32]
  103168:	aa24      	add	r2, sp, #144	; 0x90
  10316a:	f003 fa97 	bl	10669c <__ssprint_r>
  10316e:	2800      	cmp	r0, #0
  103170:	d175      	bne.n	10325e <_svfprintf_r+0xed2>
  103172:	ac31      	add	r4, sp, #196	; 0xc4
  103174:	3d10      	subs	r5, #16
  103176:	e000      	b.n	10317a <_svfprintf_r+0xdee>
  103178:	4e3e      	ldr	r6, [pc, #248]	; (103274 <_svfprintf_r+0xee8>)
  10317a:	2d10      	cmp	r5, #16
  10317c:	dce4      	bgt.n	103148 <_svfprintf_r+0xdbc>
  10317e:	3610      	adds	r6, #16
  103180:	9826      	ldr	r0, [sp, #152]	; 0x98
  103182:	6026      	str	r6, [r4, #0]
  103184:	6065      	str	r5, [r4, #4]
  103186:	1945      	adds	r5, r0, r5
  103188:	9526      	str	r5, [sp, #152]	; 0x98
  10318a:	9b25      	ldr	r3, [sp, #148]	; 0x94
  10318c:	3301      	adds	r3, #1
  10318e:	9325      	str	r3, [sp, #148]	; 0x94
  103190:	2b07      	cmp	r3, #7
  103192:	dccc      	bgt.n	10312e <_svfprintf_r+0xda2>
  103194:	e005      	b.n	1031a2 <_svfprintf_r+0xe16>
  103196:	6063      	str	r3, [r4, #4]
  103198:	9b26      	ldr	r3, [sp, #152]	; 0x98
  10319a:	3301      	adds	r3, #1
  10319c:	6021      	str	r1, [r4, #0]
  10319e:	9326      	str	r3, [sp, #152]	; 0x98
  1031a0:	e7f3      	b.n	10318a <_svfprintf_r+0xdfe>
  1031a2:	3408      	adds	r4, #8
  1031a4:	9a18      	ldr	r2, [sp, #96]	; 0x60
  1031a6:	9826      	ldr	r0, [sp, #152]	; 0x98
  1031a8:	ab20      	add	r3, sp, #128	; 0x80
  1031aa:	6062      	str	r2, [r4, #4]
  1031ac:	6023      	str	r3, [r4, #0]
  1031ae:	1883      	adds	r3, r0, r2
  1031b0:	9326      	str	r3, [sp, #152]	; 0x98
  1031b2:	e76f      	b.n	103094 <_svfprintf_r+0xd08>
  1031b4:	3408      	adds	r4, #8
  1031b6:	9906      	ldr	r1, [sp, #24]
  1031b8:	0749      	lsls	r1, r1, #29
  1031ba:	d40b      	bmi.n	1031d4 <_svfprintf_r+0xe48>
  1031bc:	9b0f      	ldr	r3, [sp, #60]	; 0x3c
  1031be:	9c13      	ldr	r4, [sp, #76]	; 0x4c
  1031c0:	42a3      	cmp	r3, r4
  1031c2:	da00      	bge.n	1031c6 <_svfprintf_r+0xe3a>
  1031c4:	1c23      	adds	r3, r4, #0
  1031c6:	9c14      	ldr	r4, [sp, #80]	; 0x50
  1031c8:	9826      	ldr	r0, [sp, #152]	; 0x98
  1031ca:	18e4      	adds	r4, r4, r3
  1031cc:	9414      	str	r4, [sp, #80]	; 0x50
  1031ce:	2800      	cmp	r0, #0
  1031d0:	d030      	beq.n	103234 <_svfprintf_r+0xea8>
  1031d2:	e034      	b.n	10323e <_svfprintf_r+0xeb2>
  1031d4:	9913      	ldr	r1, [sp, #76]	; 0x4c
  1031d6:	9a0f      	ldr	r2, [sp, #60]	; 0x3c
  1031d8:	1a8d      	subs	r5, r1, r2
  1031da:	2d00      	cmp	r5, #0
  1031dc:	dc15      	bgt.n	10320a <_svfprintf_r+0xe7e>
  1031de:	e7ed      	b.n	1031bc <_svfprintf_r+0xe30>
  1031e0:	2310      	movs	r3, #16
  1031e2:	6063      	str	r3, [r4, #4]
  1031e4:	9b26      	ldr	r3, [sp, #152]	; 0x98
  1031e6:	3310      	adds	r3, #16
  1031e8:	9326      	str	r3, [sp, #152]	; 0x98
  1031ea:	9b25      	ldr	r3, [sp, #148]	; 0x94
  1031ec:	3301      	adds	r3, #1
  1031ee:	9325      	str	r3, [sp, #148]	; 0x94
  1031f0:	2b07      	cmp	r3, #7
  1031f2:	dc01      	bgt.n	1031f8 <_svfprintf_r+0xe6c>
  1031f4:	3408      	adds	r4, #8
  1031f6:	e007      	b.n	103208 <_svfprintf_r+0xe7c>
  1031f8:	9809      	ldr	r0, [sp, #36]	; 0x24
  1031fa:	9908      	ldr	r1, [sp, #32]
  1031fc:	aa24      	add	r2, sp, #144	; 0x90
  1031fe:	f003 fa4d 	bl	10669c <__ssprint_r>
  103202:	2800      	cmp	r0, #0
  103204:	d12b      	bne.n	10325e <_svfprintf_r+0xed2>
  103206:	ac31      	add	r4, sp, #196	; 0xc4
  103208:	3d10      	subs	r5, #16
  10320a:	4b1a      	ldr	r3, [pc, #104]	; (103274 <_svfprintf_r+0xee8>)
  10320c:	6023      	str	r3, [r4, #0]
  10320e:	2d10      	cmp	r5, #16
  103210:	dce6      	bgt.n	1031e0 <_svfprintf_r+0xe54>
  103212:	9b26      	ldr	r3, [sp, #152]	; 0x98
  103214:	6065      	str	r5, [r4, #4]
  103216:	195d      	adds	r5, r3, r5
  103218:	9b25      	ldr	r3, [sp, #148]	; 0x94
  10321a:	3301      	adds	r3, #1
  10321c:	9526      	str	r5, [sp, #152]	; 0x98
  10321e:	9325      	str	r3, [sp, #148]	; 0x94
  103220:	2b07      	cmp	r3, #7
  103222:	ddcb      	ble.n	1031bc <_svfprintf_r+0xe30>
  103224:	9809      	ldr	r0, [sp, #36]	; 0x24
  103226:	9908      	ldr	r1, [sp, #32]
  103228:	aa24      	add	r2, sp, #144	; 0x90
  10322a:	f003 fa37 	bl	10669c <__ssprint_r>
  10322e:	2800      	cmp	r0, #0
  103230:	d0c4      	beq.n	1031bc <_svfprintf_r+0xe30>
  103232:	e014      	b.n	10325e <_svfprintf_r+0xed2>
  103234:	2300      	movs	r3, #0
  103236:	9325      	str	r3, [sp, #148]	; 0x94
  103238:	ac31      	add	r4, sp, #196	; 0xc4
  10323a:	f7ff f8d9 	bl	1023f0 <_svfprintf_r+0x64>
  10323e:	9809      	ldr	r0, [sp, #36]	; 0x24
  103240:	9908      	ldr	r1, [sp, #32]
  103242:	aa24      	add	r2, sp, #144	; 0x90
  103244:	f003 fa2a 	bl	10669c <__ssprint_r>
  103248:	2800      	cmp	r0, #0
  10324a:	d0f3      	beq.n	103234 <_svfprintf_r+0xea8>
  10324c:	e007      	b.n	10325e <_svfprintf_r+0xed2>
  10324e:	9c26      	ldr	r4, [sp, #152]	; 0x98
  103250:	2c00      	cmp	r4, #0
  103252:	d004      	beq.n	10325e <_svfprintf_r+0xed2>
  103254:	9809      	ldr	r0, [sp, #36]	; 0x24
  103256:	9908      	ldr	r1, [sp, #32]
  103258:	aa24      	add	r2, sp, #144	; 0x90
  10325a:	f003 fa1f 	bl	10669c <__ssprint_r>
  10325e:	9c08      	ldr	r4, [sp, #32]
  103260:	89a3      	ldrh	r3, [r4, #12]
  103262:	0658      	lsls	r0, r3, #25
  103264:	d502      	bpl.n	10326c <_svfprintf_r+0xee0>
  103266:	2301      	movs	r3, #1
  103268:	425b      	negs	r3, r3
  10326a:	9314      	str	r3, [sp, #80]	; 0x50
  10326c:	9814      	ldr	r0, [sp, #80]	; 0x50
  10326e:	b041      	add	sp, #260	; 0x104
  103270:	bdf0      	pop	{r4, r5, r6, r7, pc}
  103272:	46c0      	nop			; (mov r8, r8)
  103274:	001091ba 			; <UNDEFINED> instruction: 0x001091ba
	...
  103280:	001091ca 	andseq	r9, r0, sl, asr #3

00103284 <findslot>:
  103284:	4a05      	ldr	r2, [pc, #20]	; (10329c <findslot+0x18>)
  103286:	2300      	movs	r3, #0
  103288:	00d9      	lsls	r1, r3, #3
  10328a:	5889      	ldr	r1, [r1, r2]
  10328c:	4281      	cmp	r1, r0
  10328e:	d002      	beq.n	103296 <findslot+0x12>
  103290:	3301      	adds	r3, #1
  103292:	2b14      	cmp	r3, #20
  103294:	d1f8      	bne.n	103288 <findslot+0x4>
  103296:	1c18      	adds	r0, r3, #0
  103298:	4770      	bx	lr
  10329a:	46c0      	nop			; (mov r8, r8)
  10329c:	0020098c 	eoreq	r0, r0, ip, lsl #19

001032a0 <error>:
  1032a0:	b5f0      	push	{r4, r5, r6, r7, lr}
  1032a2:	1c04      	adds	r4, r0, #0
  1032a4:	f002 f94c 	bl	105540 <__errno>
  1032a8:	2700      	movs	r7, #0
  1032aa:	1c05      	adds	r5, r0, #0
  1032ac:	2613      	movs	r6, #19
  1032ae:	1c30      	adds	r0, r6, #0
  1032b0:	1c39      	adds	r1, r7, #0
  1032b2:	dfab      	svc	171	; 0xab
  1032b4:	1c06      	adds	r6, r0, #0
  1032b6:	602e      	str	r6, [r5, #0]
  1032b8:	1c20      	adds	r0, r4, #0
  1032ba:	bdf0      	pop	{r4, r5, r6, r7, pc}

001032bc <wrap.part.0>:
  1032bc:	2001      	movs	r0, #1
  1032be:	b500      	push	{lr}
  1032c0:	4240      	negs	r0, r0
  1032c2:	f7ff ffed 	bl	1032a0 <error>
  1032c6:	bd00      	pop	{pc}

001032c8 <remap_handle>:
  1032c8:	4b0d      	ldr	r3, [pc, #52]	; (103300 <remap_handle+0x38>)
  1032ca:	b510      	push	{r4, lr}
  1032cc:	1c04      	adds	r4, r0, #0
  1032ce:	6818      	ldr	r0, [r3, #0]
  1032d0:	2800      	cmp	r0, #0
  1032d2:	d004      	beq.n	1032de <remap_handle+0x16>
  1032d4:	6b83      	ldr	r3, [r0, #56]	; 0x38
  1032d6:	2b00      	cmp	r3, #0
  1032d8:	d101      	bne.n	1032de <remap_handle+0x16>
  1032da:	f002 fa45 	bl	105768 <__sinit>
  1032de:	2c00      	cmp	r4, #0
  1032e0:	d102      	bne.n	1032e8 <remap_handle+0x20>
  1032e2:	4b08      	ldr	r3, [pc, #32]	; (103304 <remap_handle+0x3c>)
  1032e4:	6a18      	ldr	r0, [r3, #32]
  1032e6:	e00a      	b.n	1032fe <remap_handle+0x36>
  1032e8:	2c01      	cmp	r4, #1
  1032ea:	d102      	bne.n	1032f2 <remap_handle+0x2a>
  1032ec:	4b05      	ldr	r3, [pc, #20]	; (103304 <remap_handle+0x3c>)
  1032ee:	6a58      	ldr	r0, [r3, #36]	; 0x24
  1032f0:	e005      	b.n	1032fe <remap_handle+0x36>
  1032f2:	1c20      	adds	r0, r4, #0
  1032f4:	3820      	subs	r0, #32
  1032f6:	2c02      	cmp	r4, #2
  1032f8:	d101      	bne.n	1032fe <remap_handle+0x36>
  1032fa:	4b02      	ldr	r3, [pc, #8]	; (103304 <remap_handle+0x3c>)
  1032fc:	6a98      	ldr	r0, [r3, #40]	; 0x28
  1032fe:	bd10      	pop	{r4, pc}
  103300:	002000a0 	eoreq	r0, r0, r0, lsr #1
  103304:	00200a0c 	eoreq	r0, r0, ip, lsl #20

00103308 <initialise_monitor_handles>:
  103308:	b5f7      	push	{r0, r1, r2, r4, r5, r6, r7, lr}
  10330a:	4a14      	ldr	r2, [pc, #80]	; (10335c <initialise_monitor_handles+0x54>)
  10330c:	2303      	movs	r3, #3
  10330e:	9200      	str	r2, [sp, #0]
